 win32_pong

 Timestamp is 5529d58c (Sat Apr 11 21:16:44 2015)

 Preferred load address is 0000000140000000

 Start         Length     Name                   Class
 0001:00000000 00029a2cH .text$mn                CODE
 0001:00029a30 000005cbH .text$x                 CODE
 0002:00000000 000002e8H .idata$5                DATA
 0002:000002e8 00000008H .CRT$XCA                DATA
 0002:000002f0 00000008H .CRT$XCZ                DATA
 0002:000002f8 00000008H .CRT$XIA                DATA
 0002:00000300 00000020H .CRT$XIC                DATA
 0002:00000320 00000008H .CRT$XIY                DATA
 0002:00000328 00000008H .CRT$XIZ                DATA
 0002:00000330 00000008H .CRT$XPA                DATA
 0002:00000338 00000010H .CRT$XPX                DATA
 0002:00000348 00000008H .CRT$XPXA               DATA
 0002:00000350 00000008H .CRT$XPZ                DATA
 0002:00000358 00000008H .CRT$XTA                DATA
 0002:00000360 00000008H .CRT$XTZ                DATA
 0002:00000370 0000acc0H .rdata                  DATA
 0002:0000b030 0000004cH .rdata$debug            DATA
 0002:0000b080 0000016cH .rdata$r                DATA
 0002:0000b1f0 00000008H .rtc$IAA                DATA
 0002:0000b1f8 00000008H .rtc$IZZ                DATA
 0002:0000b200 00000008H .rtc$TAA                DATA
 0002:0000b208 00000008H .rtc$TZZ                DATA
 0002:0000b210 00000cc4H .xdata                  DATA
 0002:0000bed8 00000084H .xdata$x                DATA
 0002:0000bf5c 00000000H .edata                  DATA
 0002:0000bf5c 00000050H .idata$2                DATA
 0002:0000bfac 00000014H .idata$3                DATA
 0002:0000bfc0 000002e8H .idata$4                DATA
 0002:0000c2a8 0000068aH .idata$6                DATA
 0003:00000000 00001838H .data                   DATA
 0003:00001838 00000070H .data$r                 DATA
 0003:000018c0 00002518H .bss                    DATA
 0004:00000000 00001524H .pdata                  DATA

  Address         Publics by Value              Rva+Base               Lib:Object

 0000:00000000       ___safe_se_handler_table   0000000000000000     <absolute>
 0000:00000000       __guard_fids_table         0000000000000000     <absolute>
 0000:00000000       __guard_flags              0000000000000000     <absolute>
 0000:00000000       __guard_fids_count         0000000000000000     <absolute>
 0000:00000000       ___safe_se_handler_count   0000000000000000     <absolute>
 0000:00000000       __ImageBase                0000000140000000     <linker-defined>
 0001:00000000       WinMain                    0000000140001000 f   win32_pong.obj
 0001:00000820       ??H@YA?ATvect2@@T0@0@Z     0000000140001820 f   win32_pong.obj
 0001:00000880       ??Y@YAAEATvect2@@AEAT0@T0@@Z 0000000140001880 f   win32_pong.obj
 0001:000008e0       ??G@YA?ATvect2@@T0@0@Z     00000001400018e0 f   win32_pong.obj
 0001:00000940       ??D@YA?ATvect2@@MT0@@Z     0000000140001940 f   win32_pong.obj
 0001:000009a0       ??X@YAAEATvect2@@AEAT0@M@Z 00000001400019a0 f   win32_pong.obj
 0001:00000a00       ?DotProduct@@YAMTvect2@@0@Z 0000000140001a00 f   win32_pong.obj
 0001:00002440       ?InitDSound@@YAXPEAUHWND__@@HPEAUSound_Data@@@Z 0000000140003440 f   win32_pong.obj
 0001:000026f0       ?ResizeClientBuffer@@YAXPEAUScreenBuffer@@JJ@Z 00000001400036f0 f   win32_pong.obj
 0001:00002810       ?MainWindowCallback@@YA_JPEAUHWND__@@I_K_J@Z 0000000140003810 f   win32_pong.obj
 0001:00002950       ??$_snprintf_s@$0BAA@@@YAHAEAY0BAA@D_KPEBDZZ 0000000140003950 f i win32_pong.obj
 0001:000029a0       ?DrawPlayer@@YAXUplayer@@Utile_map@@PEAUgame_screen_buffer@@@Z 00000001400039a0 f i win32_pong.obj
 0001:00002a50       ?floor@@YAMM@Z             0000000140003a50 f i win32_pong.obj
 0001:00002a70       roundf                     0000000140003a70 f   LIBCMTD:roundf.obj
 0001:00002b00       _vsnprintf_helper          0000000140003b00 f   LIBCMTD:vsnprnc.obj
 0001:00002de0       _vsnprintf_s               0000000140003de0 f   LIBCMTD:vsnprnc.obj
 0001:00002e30       _vsnprintf_s_l             0000000140003e30 f   LIBCMTD:vsnprnc.obj
 0001:000033d0       _vsprintf_s_l              00000001400043d0 f   LIBCMTD:vsnprnc.obj
 0001:00003760       __GSHandlerCheck           0000000140004760 f   LIBCMTD:gshandler.obj
 0001:000037a0       __GSHandlerCheckCommon     00000001400047a0 f   LIBCMTD:gshandler.obj
 0001:000038b0       __security_check_cookie    00000001400048b0 f   LIBCMTD:amdsecgs.obj
 0001:000038d0       floorf                     00000001400048d0 f   LIBCMTD:floorf.obj
 0001:00003a80       _fpmath                    0000000140004a80 f   LIBCMTD:fpinit.obj
 0001:00003aa0       _cfltcvt_init              0000000140004aa0 f   LIBCMTD:fpinit.obj
 0001:00003bb0       WinMainCRTStartup          0000000140004bb0 f   LIBCMTD:wincrt0.obj
 0001:00003e00       _fd_int                    0000000140004e00 f   LIBCMTD:_test.obj
 0001:00004030       _call_reportfault          0000000140005030 f   LIBCMTD:invarg.obj
 0001:00004160       _initp_misc_invarg         0000000140005160 f   LIBCMTD:invarg.obj
 0001:00004180       _invalid_parameter         0000000140005180 f   LIBCMTD:invarg.obj
 0001:00004210       _invoke_watson             0000000140005210 f   LIBCMTD:invarg.obj
 0001:00004270       _flsbuf                    0000000140005270 f   LIBCMTD:_flsbuf.obj
 0001:00004610       _CrtDbgReportW             0000000140005610 f   LIBCMTD:dbgrptw.obj
 0001:00004690       _CrtDbgReportWV            0000000140005690 f i LIBCMTD:dbgrptw.obj
 0001:000046f0       __crtMessageWindowW        00000001400056f0 f   LIBCMTD:dbgrptw.obj
 0001:00004d70       _invoke_watson_if_error    0000000140005d70 f i LIBCMTD:dbgrptw.obj
 0001:00004dc0       _invoke_watson_if_oneof    0000000140005dc0 f i LIBCMTD:dbgrptw.obj
 0001:00004e40       memset                     0000000140005e40 f   LIBCMTD:memset.obj
 0001:00005070       ??0_LocaleUpdate@@QEAA@PEAUlocaleinfo_struct@@@Z 0000000140006070 f i LIBCMTD:output.obj
 0001:000051b0       ??1_LocaleUpdate@@QEAA@XZ  00000001400061b0 f i LIBCMTD:output.obj
 0001:000051f0       ?GetLocaleT@_LocaleUpdate@@QEAAPEAUlocaleinfo_struct@@XZ 00000001400061f0 f i LIBCMTD:output.obj
 0001:00005200       get_int64_arg              0000000140006200 f i LIBCMTD:output.obj
 0001:00005270       get_int_arg                0000000140006270 f i LIBCMTD:output.obj
 0001:000052d0       get_short_arg              00000001400062d0 f i LIBCMTD:output.obj
 0001:00005340       _output_s_l                0000000140006340 f   LIBCMTD:outputs.obj
 0001:00006f20       __doserrno                 0000000140007f20 f   LIBCMTD:dosmap.obj
 0001:00006f50       _dosmaperr                 0000000140007f50 f   LIBCMTD:dosmap.obj
 0001:00006f80       _errno                     0000000140007f80 f   LIBCMTD:dosmap.obj
 0001:00006fb0       _get_errno_from_oserr      0000000140007fb0 f   LIBCMTD:dosmap.obj
 0001:00007570       _CrtCheckMemory            0000000140008570 f   LIBCMTD:dbgheap.obj
 0001:00007b10       _CrtDumpMemoryLeaks        0000000140008b10 f   LIBCMTD:dbgheap.obj
 0001:00007bd0       _CrtGetCheckCount          0000000140008bd0 f   LIBCMTD:dbgheap.obj
 0001:00007be0       _CrtIsValidHeapPointer     0000000140008be0 f   LIBCMTD:dbgheap.obj
 0001:00007c40       _CrtIsValidPointer         0000000140008c40 f   LIBCMTD:dbgheap.obj
 0001:00007c80       _CrtMemCheckpoint          0000000140008c80 f   LIBCMTD:dbgheap.obj
 0001:00007f10       _CrtMemDumpAllObjectsSince 0000000140008f10 f   LIBCMTD:dbgheap.obj
 0001:00007f60       _CrtSetCheckCount          0000000140008f60 f   LIBCMTD:dbgheap.obj
 0001:00007f80       _CrtSetDbgFlag             0000000140008f80 f   LIBCMTD:dbgheap.obj
 0001:000080c0       _calloc_dbg                00000001400090c0 f   LIBCMTD:dbgheap.obj
 0001:00008140       _calloc_dbg_impl           0000000140009140 f   LIBCMTD:dbgheap.obj
 0001:000081f0       _free_dbg                  00000001400091f0 f   LIBCMTD:dbgheap.obj
 0001:00008230       _free_dbg_nolock           0000000140009230 f   LIBCMTD:dbgheap.obj
 0001:00008dc0       _malloc_dbg                0000000140009dc0 f   LIBCMTD:dbgheap.obj
 0001:00008e10       _msize_dbg                 0000000140009e10 f   LIBCMTD:dbgheap.obj
 0001:00009060       _nh_malloc_dbg             000000014000a060 f   LIBCMTD:dbgheap.obj
 0001:000093f0       _realloc_dbg               000000014000a3f0 f   LIBCMTD:dbgheap.obj
 0001:00009d60       __raise_securityfailure    000000014000ad60 f   LIBCMTD:gs_report.obj
 0001:00009db0       __report_gsfailure         000000014000adb0 f   LIBCMTD:gs_report.obj
 0001:00009e90       __report_rangecheckfailure 000000014000ae90 f   LIBCMTD:gs_report.obj
 0001:00009eb0       __report_securityfailure   000000014000aeb0 f   LIBCMTD:gs_report.obj
 0001:0000a120       _handle_errorf             000000014000b120 f   LIBCMTD:libm_error.obj
 0001:0000a2a0       ?strrchr@@YAPEADPEADH@Z    000000014000b2a0 f i LIBCMTD:cvt.obj
 0001:0000a2c0       _cfltcvt                   000000014000b2c0 f   LIBCMTD:cvt.obj
 0001:0000a310       _cfltcvt_l                 000000014000b310 f   LIBCMTD:cvt.obj
 0001:0000a430       _cftoa_l                   000000014000b430 f   LIBCMTD:cvt.obj
 0001:0000af30       _cftoe                     000000014000bf30 f   LIBCMTD:cvt.obj
 0001:0000b550       _cftoe_l                   000000014000c550 f   LIBCMTD:cvt.obj
 0001:0000bc50       _cftof_l                   000000014000cc50 f   LIBCMTD:cvt.obj
 0001:0000bf30       _cftog_l                   000000014000cf30 f   LIBCMTD:cvt.obj
 0001:0000c2f0       _cropzeros                 000000014000d2f0 f   LIBCMTD:cvt.obj
 0001:0000c310       _cropzeros_l               000000014000d310 f   LIBCMTD:cvt.obj
 0001:0000c490       _fassign                   000000014000d490 f   LIBCMTD:cvt.obj
 0001:0000c4c0       _fassign_l                 000000014000d4c0 f   LIBCMTD:cvt.obj
 0001:0000c530       _forcdecpt                 000000014000d530 f   LIBCMTD:cvt.obj
 0001:0000c550       _forcdecpt_l               000000014000d550 f   LIBCMTD:cvt.obj
 0001:0000c650       _positive                  000000014000d650 f   LIBCMTD:cvt.obj
 0001:0000c6e0       _initp_misc_cfltcvt_tab    000000014000d6e0 f   LIBCMTD:cmiscdat.obj
 0001:0000c730       ?__CxxUnhandledExceptionFilter@@YAJPEAU_EXCEPTION_POINTERS@@@Z 000000014000d730 f   LIBCMTD:unhandld.obj
 0001:0000c7b0       __CxxSetUnhandledExceptionFilter 000000014000d7b0 f   LIBCMTD:unhandld.obj
 0001:0000c7d0       _XcptFilter                000000014000d7d0 f   LIBCMTD:winxfltr.obj
 0001:0000cb00       _freefls                   000000014000db00 f   LIBCMTD:tidtable.obj
 0001:0000cd10       _getptd                    000000014000dd10 f   LIBCMTD:tidtable.obj
 0001:0000cd40       _getptd_noexit             000000014000dd40 f   LIBCMTD:tidtable.obj
 0001:0000ce10       _initptd                   000000014000de10 f   LIBCMTD:tidtable.obj
 0001:0000cf40       _mtinit                    000000014000df40 f   LIBCMTD:tidtable.obj
 0001:0000d000       _mtterm                    000000014000e000 f   LIBCMTD:tidtable.obj
 0001:0000d030       __crtCorExitProcess        000000014000e030 f   LIBCMTD:crt0dat.obj
 0001:0000d080       __crtExitProcess           000000014000e080 f   LIBCMTD:crt0dat.obj
 0001:0000d0a0       __freeCrtMemory            000000014000e0a0 f   LIBCMTD:crt0dat.obj
 0001:0000d2d0       _amsg_exit                 000000014000e2d0 f   LIBCMTD:crt0dat.obj
 0001:0000d300       _c_exit                    000000014000e300 f   LIBCMTD:crt0dat.obj
 0001:0000d320       _cexit                     000000014000e320 f   LIBCMTD:crt0dat.obj
 0001:0000d340       _cinit                     000000014000e340 f   LIBCMTD:crt0dat.obj
 0001:0000d3f0       _exit                      000000014000e3f0 f   LIBCMTD:crt0dat.obj
 0001:0000d410       _init_pointers             000000014000e410 f   LIBCMTD:crt0dat.obj
 0001:0000d4c0       _initterm_e                000000014000e4c0 f   LIBCMTD:crt0dat.obj
 0001:0000d520       _lockexit                  000000014000e520 f   LIBCMTD:crt0dat.obj
 0001:0000d540       _unlockexit                000000014000e540 f   LIBCMTD:crt0dat.obj
 0001:0000d770       exit                       000000014000e770 f   LIBCMTD:crt0dat.obj
 0001:0000d790       _heap_init                 000000014000e790 f   LIBCMTD:heapinit.obj
 0001:0000d7c0       _ioinit                    000000014000e7c0 f   LIBCMTD:ioinit.obj
 0001:0000dda0       _set_pgmptr                000000014000eda0 f i LIBCMTD:stdargv.obj
 0001:0000ddc0       _setargv                   000000014000edc0 f   LIBCMTD:stdargv.obj
 0001:0000e420       _setenvp                   000000014000f420 f   LIBCMTD:stdenvp.obj
 0001:0000e630       _FF_MSGBANNER              000000014000f630 f   LIBCMTD:crt0msg.obj
 0001:0000e680       _GET_RTERRMSG              000000014000f680 f   LIBCMTD:crt0msg.obj
 0001:0000e6e0       _NMSG_WRITE                000000014000f6e0 f   LIBCMTD:crt0msg.obj
 0001:0000eb10       __set_app_type             000000014000fb10 f   LIBCMTD:errmode.obj
 0001:0000eb20       _set_error_mode            000000014000fb20 f   LIBCMTD:errmode.obj
 0001:0000ec30       __security_init_cookie     000000014000fc30 f   LIBCMTD:gs_support.obj
 0001:0000ed50       _RTC_Initialize            000000014000fd50 f   LIBCMTD:initsect.obj
 0001:0000ed90       _RTC_Terminate             000000014000fd90 f   LIBCMTD:initsect.obj
 0001:0000edd0       __crtGetEnvironmentStringsA 000000014000fdd0 f   LIBCMTD:a_env.obj
 0001:0000efb0       __crtCaptureCurrentContext 000000014000ffb0 f   LIBCMTD:winapisupp.obj
 0001:0000f050       __crtCapturePreviousContext 0000000140010050 f   LIBCMTD:winapisupp.obj
 0001:0000f110       __crtFlsAlloc              0000000140010110 f   LIBCMTD:winapisupp.obj
 0001:0000f160       __crtFlsFree               0000000140010160 f   LIBCMTD:winapisupp.obj
 0001:0000f1b0       __crtFlsGetValue           00000001400101b0 f   LIBCMTD:winapisupp.obj
 0001:0000f200       __crtFlsSetValue           0000000140010200 f   LIBCMTD:winapisupp.obj
 0001:0000f260       __crtGetShowWindowMode     0000000140010260 f   LIBCMTD:winapisupp.obj
 0001:0000f2a0       __crtInitializeCriticalSectionEx 00000001400102a0 f   LIBCMTD:winapisupp.obj
 0001:0000f310       __crtIsPackagedApp         0000000140010310 f   LIBCMTD:winapisupp.obj
 0001:0000f350       __crtLoadWinApiPointers    0000000140010350 f   LIBCMTD:winapisupp.obj
 0001:0000f940       __crtSetUnhandledExceptionFilter 0000000140010940 f   LIBCMTD:winapisupp.obj
 0001:0000f960       __crtTerminateProcess      0000000140010960 f   LIBCMTD:winapisupp.obj
 0001:0000f980       __crtUnhandledException    0000000140010980 f   LIBCMTD:winapisupp.obj
 0001:0000f9b0       _wincmdln                  00000001400109b0 f   LIBCMTD:wincmdln.obj
 0001:0000fac0       __C_specific_handler       0000000140010ac0 f   LIBCMTD:chandler.obj
 0001:0000fee0       _CrtDefaultAllocHook       0000000140010ee0 f   LIBCMTD:dbghook.obj
 0001:0000ff00       __crt_debugger_hook        0000000140010f00 f   LIBCMTD:dbghook.obj
 0001:0000ff10       __initstdio                0000000140010f10 f   LIBCMTD:_file.obj
 0001:00010010       __endstdio                 0000000140011010 f   LIBCMTD:_file.obj
 0001:00010050       __iob_func                 0000000140011050 f   LIBCMTD:_file.obj
 0001:00010060       _lock_file                 0000000140011060 f   LIBCMTD:_file.obj
 0001:000100f0       _lock_file2                00000001400110f0 f   LIBCMTD:_file.obj
 0001:00010140       _unlock_file               0000000140011140 f   LIBCMTD:_file.obj
 0001:000101d0       _unlock_file2              00000001400111d0 f   LIBCMTD:_file.obj
 0001:00010220       _fileno                    0000000140011220 f   LIBCMTD:fileno.obj
 0001:000102e0       _isatty                    00000001400112e0 f   LIBCMTD:isatty.obj
 0001:000103f0       _write                     00000001400113f0 f   LIBCMTD:write.obj
 0001:00010690       _write_nolock              0000000140011690 f   LIBCMTD:write.obj
 0001:000117d0       _lseeki64                  00000001400127d0 f   LIBCMTD:lseeki64.obj
 0001:00011a80       _lseeki64_nolock           0000000140012a80 f   LIBCMTD:lseeki64.obj
 0001:00011ba0       _getbuf                    0000000140012ba0 f   LIBCMTD:_getbuf.obj
 0001:00011cb0       memcpy_s                   0000000140012cb0 f   LIBCMTD:memcpy_s.obj
 0001:00011f20       wcscpy_s                   0000000140012f20 f   LIBCMTD:wcscpy_s.obj
 0001:000123d0       wcslen                     00000001400133d0 f   LIBCMTD:wcslen.obj
 0001:00012420       _lock                      0000000140013420 f   LIBCMTD:mlock.obj
 0001:00012480       _mtdeletelocks             0000000140013480 f   LIBCMTD:mlock.obj
 0001:000125a0       _mtinitlocknum             00000001400135a0 f   LIBCMTD:mlock.obj
 0001:000126a0       _mtinitlocks               00000001400136a0 f   LIBCMTD:mlock.obj
 0001:00012740       _unlock                    0000000140013740 f   LIBCMTD:mlock.obj
 0001:00012770       _snwprintf_s               0000000140013770 f   LIBCMTD:swprintf.obj
 0001:000127d0       __get_sigabrt              00000001400137d0 f   LIBCMTD:winsig.obj
 0001:000127f0       _initp_misc_winsig         00000001400137f0 f   LIBCMTD:winsig.obj
 0001:00012830       raise                      0000000140013830 f   LIBCMTD:winsig.obj
 0001:00012ca0       __crtMessageBoxW           0000000140013ca0 f   LIBCMTD:crtmboxw.obj
 0001:00013110       __crtMessageBoxWaitThreadW 0000000140014110 f   LIBCMTD:crtmboxw.obj
 0001:00013160       _CrtDbgBreak               0000000140014160 f   LIBCMTD:dbgrptt.obj
 0001:00013170       _VCrtDbgReportA            0000000140014170 f   LIBCMTD:dbgrptt.obj
 0001:00013b40       _VCrtDbgReportW            0000000140014b40 f   LIBCMTD:dbgrptt.obj
 0001:00014690       __chkstk                   0000000140015690 f   LIBCMTD:chkstk.obj
 0001:00014690       _alloca_probe              0000000140015690 f   LIBCMTD:chkstk.obj
 0001:000146e0       __isa_available_init       00000001400156e0 f   LIBCMTD:cpu_disp.obj
 0001:00014a20       __addlocaleref             0000000140015a20 f   LIBCMTD:localref.obj
 0001:00014b70       __freetlocinfo             0000000140015b70 f   LIBCMTD:localref.obj
 0001:00014f20       __removelocaleref          0000000140015f20 f   LIBCMTD:localref.obj
 0001:00015080       __updatetlocinfo           0000000140016080 f   LIBCMTD:localref.obj
 0001:00015120       _updatetlocinfoEx_nolock   0000000140016120 f   LIBCMTD:localref.obj
 0001:000151c0       __initmbctable             00000001400161c0 f   LIBCMTD:mbctype.obj
 0001:00015850       __updatetmbcinfo           0000000140016850 f   LIBCMTD:mbctype.obj
 0001:00015960       _setmbcp                   0000000140016960 f   LIBCMTD:mbctype.obj
 0001:00015c50       _setmbcp_nolock            0000000140016c50 f   LIBCMTD:mbctype.obj
 0001:000160a0       _isleadbyte_l              00000001400170a0 f i LIBCMTD:_wctype.obj
 0001:00016100       isleadbyte                 0000000140017100 f i LIBCMTD:_wctype.obj
 0001:00016130       strlen                     0000000140017130 f   LIBCMTD:strlen.obj
 0001:000161e0       _get_printf_count_output   00000001400171e0 f   LIBCMTD:printf.obj
 0001:00016210       _wctomb_s_l                0000000140017210 f   LIBCMTD:wctomb.obj
 0001:000166b0       wctomb_s                   00000001400176b0 f   LIBCMTD:wctomb.obj
 0001:00016700       _chvalidator               0000000140017700 f   LIBCMTD:isctype.obj
 0001:00016770       _chvalidator_l             0000000140017770 f   LIBCMTD:isctype.obj
 0001:00016880       _isctype_l                 0000000140017880 f   LIBCMTD:isctype.obj
 0001:00016a70       memmove                    0000000140017a70 f   LIBCMTD:memcpy.obj
 0001:00016a70       memcpy                     0000000140017a70 f   LIBCMTD:memcpy.obj
 0001:00016fe0       _free_base                 0000000140017fe0 f   LIBCMTD:free.obj
 0001:00017040       _realloc_base              0000000140018040 f   LIBCMTD:realloc.obj
 0001:00017160       _expand_base               0000000140018160 f   LIBCMTD:expand.obj
 0001:00017340       _CrtDbgReport              0000000140018340 f   LIBCMTD:dbgrpt.obj
 0001:000173c0       _CrtDbgReportV             00000001400183c0 f i LIBCMTD:dbgrpt.obj
 0001:00017420       __crtMessageWindowA        0000000140018420 f   LIBCMTD:dbgrpt.obj
 0001:00017aa0       _callnewh                  0000000140018aa0 f   LIBCMTD:handler.obj
 0001:00017ae0       _initp_heap_handler        0000000140018ae0 f   LIBCMTD:handler.obj
 0001:00017b00       _heapchk                   0000000140018b00 f   LIBCMTD:heapchk.obj
 0001:00017b40       _snprintf_s                0000000140018b40 f   LIBCMTD:sprintf.obj
 0001:00017ba0       sprintf_s                  0000000140018ba0 f   LIBCMTD:sprintf.obj
 0001:00017bf0       _heap_alloc_base           0000000140018bf0 f i LIBCMTD:malloc.obj
 0001:00017c60       _malloc_base               0000000140018c60 f   LIBCMTD:malloc.obj
 0001:00017d00       _raise_exc_ex              0000000140018d00 f   LIBCMTD:fpexcept.obj
 0001:00018380       _raise_excf                0000000140019380 f   LIBCMTD:fpexcept.obj
 0001:000183e0       _set_errno_from_matherr    00000001400193e0 f   LIBCMTD:fpexcept.obj
 0001:00018430       _clrfp                     0000000140019430 f   LIBCMTD:fpctrl.obj
 0001:00018460       _ctrlfp                    0000000140019460 f   LIBCMTD:fpctrl.obj
 0001:00018510       _set_statfp                0000000140019510 f   LIBCMTD:fpctrl.obj
 0001:00018550       _statfp                    0000000140019550 f   LIBCMTD:fpctrl.obj
 0001:00018580       _matherr                   0000000140019580 f   LIBCMTD:matherr.obj
 0001:00018590       _isdigit_l                 0000000140019590 f i LIBCMTD:_ctype.obj
 0001:00018630       isdigit                    0000000140019630 f i LIBCMTD:_ctype.obj
 0001:00018670       _tolower_l                 0000000140019670 f   LIBCMTD:tolower.obj
 0001:000189d0       tolower                    00000001400199d0 f   LIBCMTD:tolower.obj
 0001:00018a20       strcpy_s                   0000000140019a20 f   LIBCMTD:strcpy_s.obj
 0001:00018ec0       strrchr                    0000000140019ec0 f   LIBCMTD:strrchr.obj
 0001:000192e0       _fptostr                   000000014001a2e0 f   LIBCMTD:_fptostr.obj
 0001:00019740       __crt_atoflt_l             000000014001a740 f   LIBCMTD:atodbl.obj
 0001:000198e0       _atodbl_l                  000000014001a8e0 f   LIBCMTD:atodbl.obj
 0001:00019a60       _atoflt_l                  000000014001aa60 f   LIBCMTD:atodbl.obj
 0001:00019a90       __dtold                    000000014001aa90 f   LIBCMTD:cfout.obj
 0001:00019c40       _fltout2                   000000014001ac40 f   LIBCMTD:cfout.obj
 0001:00019d50       _fptrap                    000000014001ad50 f   LIBCMTD:crt0fp.obj
 0001:00019d70       ?_inconsistency@@YAXXZ     000000014001ad70 f   LIBCMTD:hooks.obj
 0001:00019da0       ?terminate@@YAXXZ          000000014001ada0 f   LIBCMTD:hooks.obj
 0001:00019dd0       _initp_eh_hooks            000000014001add0 f   LIBCMTD:hooks.obj
 0001:00019e00       _FindPESection             000000014001ae00 f   LIBCMTD:pesect.obj
 0001:00019eb0       _IsNonwritableInCurrentImage 000000014001aeb0 f   LIBCMTD:pesect.obj
 0001:00019f40       _ValidateImageBase         000000014001af40 f   LIBCMTD:pesect.obj
 0001:00019fc0       __onexitinit               000000014001afc0 f   LIBCMTD:onexit.obj
 0001:0001a030       _onexit                    000000014001b030 f   LIBCMTD:onexit.obj
 0001:0001a240       atexit                     000000014001b240 f   LIBCMTD:onexit.obj
 0001:0001a280       _initp_misc_purevirt       000000014001b280 f   LIBCMTD:inithelp.obj
 0001:0001a2a0       _initp_misc_rand_s         000000014001b2a0 f   LIBCMTD:rand_s.obj
 0001:0001a2d0       _local_unwind              000000014001b2d0 f   LIBCMTD:jmpuwind.obj
 0001:0001a300       _NLG_Notify                000000014001b300 f   LIBCMTD:jmpuwind.obj
 0001:0001a320       __NLG_Dispatch2            000000014001b320 f   LIBCMTD:jmpuwind.obj
 0001:0001a330       __NLG_Return2              000000014001b330 f   LIBCMTD:jmpuwind.obj
 0001:0001a410       _ismbblead                 000000014001b410 f   LIBCMTD:ismbbyte.obj
 0001:0001a440       wcscat_s                   000000014001b440 f   LIBCMTD:wcscat_s.obj
 0001:0001aa70       wcsncpy_s                  000000014001ba70 f   LIBCMTD:wcsncpy_s.obj
 0001:0001b110       _fcloseall                 000000014001c110 f   LIBCMTD:closeall.obj
 0001:0001b210       _fflush_nolock             000000014001c210 f   LIBCMTD:fflush.obj
 0001:0001b290       _flush                     000000014001c290 f   LIBCMTD:fflush.obj
 0001:0001b380       _flushall                  000000014001c380 f   LIBCMTD:fflush.obj
 0001:0001b510       __lock_fhandle             000000014001c510 f   LIBCMTD:osfinfo.obj
 0001:0001b5e0       _free_osfhnd               000000014001c5e0 f   LIBCMTD:osfinfo.obj
 0001:0001b710       _get_osfhandle             000000014001c710 f   LIBCMTD:osfinfo.obj
 0001:0001b910       _unlock_fhandle            000000014001c910 f   LIBCMTD:osfinfo.obj
 0001:0001b950       _mbtowc_l                  000000014001c950 f   LIBCMTD:mbtowc.obj
 0001:0001bc90       mbtowc                     000000014001cc90 f   LIBCMTD:mbtowc.obj
 0001:0001bcc0       _putwch_nolock             000000014001ccc0 f   LIBCMTD:putwch.obj
 0001:0001bd30       _vsnwprintf_s              000000014001cd30 f   LIBCMTD:vswprnc.obj
 0001:0001bd80       _vsnwprintf_s_l            000000014001cd80 f   LIBCMTD:vswprnc.obj
 0001:0001c330       _vswprintf_helper          000000014001d330 f   LIBCMTD:vswprnc.obj
 0001:0001c680       strcat_s                   000000014001d680 f   LIBCMTD:strcat_s.obj
 0001:0001cc90       _itoa_s                    000000014001dc90 f   LIBCMTD:xtoas.obj
 0001:0001d2c0       _mbstowcs_l_helper         000000014001e2c0 f   LIBCMTD:mbstowcs.obj
 0001:0001d830       _mbstowcs_s_l              000000014001e830 f   LIBCMTD:mbstowcs.obj
 0001:0001ddc0       mbstowcs_s                 000000014001edc0 f   LIBCMTD:mbstowcs.obj
 0001:0001dea0       _wcstombs_l_helper         000000014001eea0 f   LIBCMTD:wcstombs.obj
 0001:0001e6b0       _wcstombs_s_l              000000014001f6b0 f   LIBCMTD:wcstombs.obj
 0001:0001ebb0       wcstombs_s                 000000014001fbb0 f   LIBCMTD:wcstombs.obj
 0001:0001ec00       _itow_s                    000000014001fc00 f   LIBCMTD:xtows.obj
 0001:0001f250       __GSHandlerCheck_SEH       0000000140020250 f   LIBCMTD:gshandlerseh.obj
 0001:0001f310       __free_lconv_mon           0000000140020310 f   LIBCMTD:initmon.obj
 0001:0001f520       __free_lconv_num           0000000140020520 f   LIBCMTD:initnum.obj
 0001:0001f600       __free_lc_time             0000000140020600 f   LIBCMTD:inittime.obj
 0001:00020540       _MallocaIsSizeInRange      0000000140021540 f i LIBCMTD:a_map.obj
 0001:00020580       _MarkAllocaS               0000000140021580 f i LIBCMTD:a_map.obj
 0001:000205b0       __crtLCMapStringA          00000001400215b0 f   LIBCMTD:a_map.obj
 0001:00020660       _freea                     0000000140021660 f i LIBCMTD:a_map.obj
 0001:000208b0       __crtGetStringTypeA        00000001400218b0 f   LIBCMTD:a_str.obj
 0001:000209d0       ?_GetEstablisherFrame@@YAPEA_KPEA_KPEAU_xDISPATCHER_CONTEXT@@PEBU_s_FuncInfo@@0@Z 00000001400219d0 f   LIBCMTD:trnsctrl.obj
 0001:00020b40       ?_GetRangeOfTrysToCheck@@YAPEBU_s_TryBlockMapEntry@@PEA_KPEBU_s_FuncInfo@@HHPEAI2PEAU_xDISPATCHER_CONTEXT@@@Z 0000000140021b40 f   LIBCMTD:trnsctrl.obj
 0001:00020d60       ?__FrameUnwindToEmptyState@@YAXPEA_KPEAU_xDISPATCHER_CONTEXT@@PEBU_s_FuncInfo@@@Z 0000000140021d60 f   LIBCMTD:trnsctrl.obj
 0001:00020e00       ?__SehTransFilter@@YAHPEAU_EXCEPTION_POINTERS@@PEAUEHExceptionRecord@@PEA_KPEAU_CONTEXT@@PEAU_xDISPATCHER_CONTEXT@@PEBU_s_FuncInfo@@PEAH@Z 0000000140021e00 f   LIBCMTD:trnsctrl.obj
 0001:00020ec0       _CallSETranslator          0000000140021ec0 f   LIBCMTD:trnsctrl.obj
 0001:00020f40       _CreateFrameInfo           0000000140021f40 f   LIBCMTD:trnsctrl.obj
 0001:00020fc0       _FindAndUnlinkFrame        0000000140021fc0 f   LIBCMTD:trnsctrl.obj
 0001:00021050       _GetImageBase              0000000140022050 f   LIBCMTD:trnsctrl.obj
 0001:00021070       _GetThrowImageBase         0000000140022070 f   LIBCMTD:trnsctrl.obj
 0001:00021090       _IsExceptionObjectToBeDestroyed 0000000140022090 f   LIBCMTD:trnsctrl.obj
 0001:000210f0       _SetImageBase              00000001400220f0 f   LIBCMTD:trnsctrl.obj
 0001:00021110       _SetThrowImageBase         0000000140022110 f   LIBCMTD:trnsctrl.obj
 0001:00021130       _UnwindNestedFrames        0000000140022130 f   LIBCMTD:trnsctrl.obj
 0001:000212a0       __CxxFrameHandler3         00000001400222a0 f   LIBCMTD:trnsctrl.obj
 0001:00021360       _locterm                   0000000140022360 f   LIBCMTD:wsetloca.obj
 0001:000213c0       _get_fpsr                  00000001400223c0 f   LIBCMTD:fpsr.obj
 0001:000213d0       _set_fpsr                  00000001400223d0 f   LIBCMTD:fpsr.obj
 0001:000213da       _fclrf                     00000001400223da f   LIBCMTD:fpsr.obj
 0001:000213ee       _frnd                      00000001400223ee f   LIBCMTD:fpsr.obj
 0001:00021410       _CopyMan                   0000000140022410 f i LIBCMTD:intrncvt.obj
 0001:00021480       _FillZeroMan               0000000140022480 f i LIBCMTD:intrncvt.obj
 0001:000214c0       _IncMan                    00000001400224c0 f i LIBCMTD:intrncvt.obj
 0001:000215a0       _IsZeroMan                 00000001400225a0 f i LIBCMTD:intrncvt.obj
 0001:000215e0       _RoundMan                  00000001400225e0 f i LIBCMTD:intrncvt.obj
 0001:000216f0       _ShrMan                    00000001400226f0 f i LIBCMTD:intrncvt.obj
 0001:00021830       _ZeroTail                  0000000140022830 f i LIBCMTD:intrncvt.obj
 0001:000218e0       __addl                     00000001400228e0 f i LIBCMTD:intrncvt.obj
 0001:00021940       _ld12cvt                   0000000140022940 f i LIBCMTD:intrncvt.obj
 0001:00021cb0       _ld12tod                   0000000140022cb0 f   LIBCMTD:intrncvt.obj
 0001:00021ce0       _ld12tof                   0000000140022ce0 f   LIBCMTD:intrncvt.obj
 0001:00021d10       __ld12mul                  0000000140022d10 f i LIBCMTD:strgtold.obj
 0001:00022280       __multtenpow12             0000000140023280 f i LIBCMTD:strgtold.obj
 0001:000223b0       __shl_12                   00000001400233b0 f i LIBCMTD:strgtold.obj
 0001:00022450       __shr_12                   0000000140023450 f i LIBCMTD:strgtold.obj
 0001:000224f0       __strgtold12_l             00000001400234f0 f   LIBCMTD:strgtold.obj
 0001:000232d0       $I10_OUTPUT                00000001400242d0 f   LIBCMTD:x10fout.obj
 0001:00023b90       __add_12                   0000000140024b90 f i LIBCMTD:x10fout.obj
 0001:00023c70       abort                      0000000140024c70 f   LIBCMTD:abort.obj
 0001:00023d00       GetTableIndexFromLocaleName 0000000140024d00 f   LIBCMTD:winapinls.obj
 0001:00023db0       __crtDownlevelLocaleNameToLCID 0000000140024db0 f   LIBCMTD:winapinls.obj
 0001:00023e10       __crtLCMapStringEx         0000000140024e10 f   LIBCMTD:winapinls.obj
 0001:00023ef0       __wcsnicmp_ascii           0000000140024ef0 f   LIBCMTD:winapinls.obj
 0001:00024000       _fclose_nolock             0000000140025000 f   LIBCMTD:fclose.obj
 0001:00024150       fclose                     0000000140025150 f   LIBCMTD:fclose.obj
 0001:00024250       _commit                    0000000140025250 f   LIBCMTD:commit.obj
 0001:000244e0       __termconout               00000001400254e0 f   LIBCMTD:initcon.obj
 0001:00024510       __initconout               0000000140025510 f   LIBCMTD:initcon.obj
 0001:00024560       _woutput_s_l               0000000140025560 f   LIBCMTD:woutputs.obj
 0001:00025e50       _fputwc_nolock             0000000140026e50 f   LIBCMTD:fputwc.obj
 0001:000262b0       free                       00000001400272b0 f   LIBCMTD:dbgfree.obj
 0001:000262d0       malloc                     00000001400272d0 f   LIBCMTD:dbgmalloc.obj
 0001:00026310       __DestructExceptionObject  0000000140027310 f   LIBCMTD:frame.obj
 0001:00026400       ??0bad_exception@std@@QEAA@AEBV01@@Z 0000000140027400 f i LIBCMTD:frame.obj
 0001:00026440       ??0bad_exception@std@@QEAA@PEBD@Z 0000000140027440 f i LIBCMTD:frame.obj
 0001:00026480       ??1bad_exception@std@@UEAA@XZ 0000000140027480 f i LIBCMTD:frame.obj
 0001:000264b0       ??_Gbad_exception@std@@UEAAPEAXI@Z 00000001400274b0 f i LIBCMTD:frame.obj
 0001:000264b0       ??_Ebad_exception@std@@UEAAPEAXI@Z 00000001400274b0 f i LIBCMTD:frame.obj
 0001:00027480       __AdjustPointer            0000000140028480 f   LIBCMTD:frame.obj
 0001:00027500       __BuildCatchObject         0000000140028500 f   LIBCMTD:frame.obj
 0001:00027640       __BuildCatchObjectHelper   0000000140028640 f   LIBCMTD:frame.obj
 0001:00027a70       __CxxCallCatchBlock        0000000140028a70 f   LIBCMTD:frame.obj
 0001:00027ce0       __FrameUnwindFilter        0000000140028ce0 f   LIBCMTD:frame.obj
 0001:00027d70       __FrameUnwindToState       0000000140028d70 f   LIBCMTD:frame.obj
 0001:00027fd0       __InternalCxxFrameHandler  0000000140028fd0 f   LIBCMTD:frame.obj
 0001:000283f0       __TypeMatch                00000001400293f0 f   LIBCMTD:frame.obj
 0001:000285e0       ?__GetCurrentState@@YAHPEA_KPEAU_xDISPATCHER_CONTEXT@@PEBU_s_FuncInfo@@@Z 00000001400295e0 f   LIBCMTD:ehstate.obj
 0001:00028640       ?__GetUnwindTryBlock@@YAHPEA_KPEAU_xDISPATCHER_CONTEXT@@PEBU_s_FuncInfo@@@Z 0000000140029640 f   LIBCMTD:ehstate.obj
 0001:00028690       ?__SetState@@YAXPEA_KPEAU_xDISPATCHER_CONTEXT@@PEBU_s_FuncInfo@@H@Z 0000000140029690 f   LIBCMTD:ehstate.obj
 0001:000286c0       ?__SetUnwindTryBlock@@YAXPEA_KPEAU_xDISPATCHER_CONTEXT@@PEBU_s_FuncInfo@@H@Z 00000001400296c0 f   LIBCMTD:ehstate.obj
 0001:00028730       ?__StateFromControlPc@@YAHPEBU_s_FuncInfo@@PEAU_xDISPATCHER_CONTEXT@@@Z 0000000140029730 f   LIBCMTD:ehstate.obj
 0001:00028760       ?__StateFromIp@@YAHPEBU_s_FuncInfo@@PEAU_xDISPATCHER_CONTEXT@@_J@Z 0000000140029760 f   LIBCMTD:ehstate.obj
 0001:00028850       memcmp                     0000000140029850 f   LIBCMTD:memcmp.obj
 0001:00028920       __mtold12                  0000000140029920 f   LIBCMTD:mantold.obj
 0001:00028ab0       _close                     0000000140029ab0 f   LIBCMTD:close.obj
 0001:00028d30       _close_nolock              0000000140029d30 f   LIBCMTD:close.obj
 0001:00028e40       _freebuf                   0000000140029e40 f   LIBCMTD:_freebuf.obj
 0001:00028f00       _flswbuf                   0000000140029f00 f   LIBCMTD:_flswbuf.obj
 0001:000292b0       ??3@YAXPEAX@Z              000000014002a2b0 f   LIBCMTD:dbgdel.obj
 0001:00029390       strcmp                     000000014002a390 f   LIBCMTD:strcmp.obj
 0001:00029400       ?_ValidateExecute@@YAHP6A_JXZ@Z 000000014002a400 f   LIBCMTD:validate.obj
 0001:00029430       ?_ValidateRead@@YAHPEBXI@Z 000000014002a430 f   LIBCMTD:validate.obj
 0001:00029430       ?_ValidateWrite@@YAHPEAXI@Z 000000014002a430 f   LIBCMTD:validate.obj
 0001:00029470       _CallSettingFrame          000000014002a470 f   LIBCMTD:handlers.obj
 0001:000294b0       _GetNextInstrOffset        000000014002a4b0 f   LIBCMTD:handlers.obj
 0001:000294c0       ??1type_info@@UEAA@XZ      000000014002a4c0 f   LIBCMTD:typinfo.obj
 0001:000294f0       ??8type_info@@QEBA_NAEBV0@@Z 000000014002a4f0 f   LIBCMTD:typinfo.obj
 0001:00029540       ??_Gtype_info@@UEAAPEAXI@Z 000000014002a540 f i LIBCMTD:typinfo.obj
 0001:00029540       ??_Etype_info@@UEAAPEAXI@Z 000000014002a540 f i LIBCMTD:typinfo.obj
 0001:00029580       ??0exception@std@@QEAA@AEBQEBD@Z 000000014002a580 f   LIBCMTD:stdexcpt.obj
 0001:000295d0       ??0exception@std@@QEAA@AEBV01@@Z 000000014002a5d0 f   LIBCMTD:stdexcpt.obj
 0001:00029620       ??1exception@std@@UEAA@XZ  000000014002a620 f   LIBCMTD:stdexcpt.obj
 0001:00029650       ??4exception@std@@QEAAAEAV01@AEBV01@@Z 000000014002a650 f   LIBCMTD:stdexcpt.obj
 0001:000296c0       ??_Eexception@std@@UEAAPEAXI@Z 000000014002a6c0 f i LIBCMTD:stdexcpt.obj
 0001:000296c0       ??_Gexception@std@@UEAAPEAXI@Z 000000014002a6c0 f i LIBCMTD:stdexcpt.obj
 0001:00029700       ?_Copy_str@exception@std@@AEAAXPEBD@Z 000000014002a700 f   LIBCMTD:stdexcpt.obj
 0001:00029770       ?_Tidy@exception@std@@AEAAXXZ 000000014002a770 f   LIBCMTD:stdexcpt.obj
 0001:000297b0       ?what@exception@std@@UEBAPEBDXZ 000000014002a7b0 f   LIBCMTD:stdexcpt.obj
 0001:000297f0       _CxxThrowException         000000014002a7f0 f   LIBCMTD:throw.obj
 0001:00029910       ?_Type_info_dtor@type_info@@CAXPEAV1@@Z 000000014002a910 f   LIBCMTD:typname.obj
 0001:00029a20       IsProcessorFeaturePresent  000000014002aa20 f   kernel32:KERNEL32.dll
 0001:00029a26       RtlUnwindEx                000000014002aa26 f   kernel32:KERNEL32.dll
 0002:00000000       __imp_StretchDIBits        000000014002b000     gdi32:GDI32.dll
 0002:00000008       \177GDI32_NULL_THUNK_DATA  000000014002b008     gdi32:GDI32.dll
 0002:00000010       __imp_CloseHandle          000000014002b010     kernel32:KERNEL32.dll
 0002:00000018       __imp_CreateFileW          000000014002b018     kernel32:KERNEL32.dll
 0002:00000020       __imp_FlushFileBuffers     000000014002b020     kernel32:KERNEL32.dll
 0002:00000028       __imp_RtlPcToFileHeader    000000014002b028     kernel32:KERNEL32.dll
 0002:00000030       __imp_LCMapStringW         000000014002b030     kernel32:KERNEL32.dll
 0002:00000038       __imp_RtlCaptureContext    000000014002b038     kernel32:KERNEL32.dll
 0002:00000040       __imp_GetStringTypeW       000000014002b040     kernel32:KERNEL32.dll
 0002:00000048       __imp_SetStdHandle         000000014002b048     kernel32:KERNEL32.dll
 0002:00000050       __imp_OutputDebugStringA   000000014002b050     kernel32:KERNEL32.dll
 0002:00000058       __imp_QueryPerformanceCounter 000000014002b058     kernel32:KERNEL32.dll
 0002:00000060       __imp_QueryPerformanceFrequency 000000014002b060     kernel32:KERNEL32.dll
 0002:00000068       __imp_Sleep                000000014002b068     kernel32:KERNEL32.dll
 0002:00000070       __imp_VirtualAlloc         000000014002b070     kernel32:KERNEL32.dll
 0002:00000078       __imp_VirtualFree          000000014002b078     kernel32:KERNEL32.dll
 0002:00000080       __imp_GetProcAddress       000000014002b080     kernel32:KERNEL32.dll
 0002:00000088       __imp_LoadLibraryA         000000014002b088     kernel32:KERNEL32.dll
 0002:00000090       __imp_GetCommandLineA      000000014002b090     kernel32:KERNEL32.dll
 0002:00000098       __imp_IsDebuggerPresent    000000014002b098     kernel32:KERNEL32.dll
 0002:000000a0       __imp_EncodePointer        000000014002b0a0     kernel32:KERNEL32.dll
 0002:000000a8       __imp_DecodePointer        000000014002b0a8     kernel32:KERNEL32.dll
 0002:000000b0       __imp_IsProcessorFeaturePresent 000000014002b0b0     kernel32:KERNEL32.dll
 0002:000000b8       __imp_GetModuleFileNameW   000000014002b0b8     kernel32:KERNEL32.dll
 0002:000000c0       __imp_GetModuleHandleExW   000000014002b0c0     kernel32:KERNEL32.dll
 0002:000000c8       __imp_HeapSize             000000014002b0c8     kernel32:KERNEL32.dll
 0002:000000d0       __imp_HeapValidate         000000014002b0d0     kernel32:KERNEL32.dll
 0002:000000d8       __imp_GetSystemInfo        000000014002b0d8     kernel32:KERNEL32.dll
 0002:000000e0       __imp_GetLastError         000000014002b0e0     kernel32:KERNEL32.dll
 0002:000000e8       __imp_SetLastError         000000014002b0e8     kernel32:KERNEL32.dll
 0002:000000f0       __imp_GetCurrentThreadId   000000014002b0f0     kernel32:KERNEL32.dll
 0002:000000f8       __imp_ExitProcess          000000014002b0f8     kernel32:KERNEL32.dll
 0002:00000100       __imp_MultiByteToWideChar  000000014002b100     kernel32:KERNEL32.dll
 0002:00000108       __imp_WideCharToMultiByte  000000014002b108     kernel32:KERNEL32.dll
 0002:00000110       __imp_GetProcessHeap       000000014002b110     kernel32:KERNEL32.dll
 0002:00000118       __imp_GetStdHandle         000000014002b118     kernel32:KERNEL32.dll
 0002:00000120       __imp_GetFileType          000000014002b120     kernel32:KERNEL32.dll
 0002:00000128       __imp_DeleteCriticalSection 000000014002b128     kernel32:KERNEL32.dll
 0002:00000130       __imp_GetStartupInfoW      000000014002b130     kernel32:KERNEL32.dll
 0002:00000138       __imp_GetModuleFileNameA   000000014002b138     kernel32:KERNEL32.dll
 0002:00000140       __imp_WriteFile            000000014002b140     kernel32:KERNEL32.dll
 0002:00000148       __imp_GetCurrentProcessId  000000014002b148     kernel32:KERNEL32.dll
 0002:00000150       __imp_GetSystemTimeAsFileTime 000000014002b150     kernel32:KERNEL32.dll
 0002:00000158       __imp_GetEnvironmentStringsW 000000014002b158     kernel32:KERNEL32.dll
 0002:00000160       __imp_FreeEnvironmentStringsW 000000014002b160     kernel32:KERNEL32.dll
 0002:00000168       __imp_RtlLookupFunctionEntry 000000014002b168     kernel32:KERNEL32.dll
 0002:00000170       __imp_RtlVirtualUnwind     000000014002b170     kernel32:KERNEL32.dll
 0002:00000178       __imp_UnhandledExceptionFilter 000000014002b178     kernel32:KERNEL32.dll
 0002:00000180       __imp_SetUnhandledExceptionFilter 000000014002b180     kernel32:KERNEL32.dll
 0002:00000188       __imp_InitializeCriticalSectionAndSpinCount 000000014002b188     kernel32:KERNEL32.dll
 0002:00000190       __imp_GetCurrentProcess    000000014002b190     kernel32:KERNEL32.dll
 0002:00000198       __imp_TerminateProcess     000000014002b198     kernel32:KERNEL32.dll
 0002:000001a0       __imp_TlsAlloc             000000014002b1a0     kernel32:KERNEL32.dll
 0002:000001a8       __imp_TlsGetValue          000000014002b1a8     kernel32:KERNEL32.dll
 0002:000001b0       __imp_TlsSetValue          000000014002b1b0     kernel32:KERNEL32.dll
 0002:000001b8       __imp_TlsFree              000000014002b1b8     kernel32:KERNEL32.dll
 0002:000001c0       __imp_GetModuleHandleW     000000014002b1c0     kernel32:KERNEL32.dll
 0002:000001c8       __imp_RtlUnwindEx          000000014002b1c8     kernel32:KERNEL32.dll
 0002:000001d0       __imp_EnterCriticalSection 000000014002b1d0     kernel32:KERNEL32.dll
 0002:000001d8       __imp_LeaveCriticalSection 000000014002b1d8     kernel32:KERNEL32.dll
 0002:000001e0       __imp_GetConsoleCP         000000014002b1e0     kernel32:KERNEL32.dll
 0002:000001e8       __imp_GetConsoleMode       000000014002b1e8     kernel32:KERNEL32.dll
 0002:000001f0       __imp_SetFilePointerEx     000000014002b1f0     kernel32:KERNEL32.dll
 0002:000001f8       __imp_OutputDebugStringW   000000014002b1f8     kernel32:KERNEL32.dll
 0002:00000200       __imp_WaitForSingleObjectEx 000000014002b200     kernel32:KERNEL32.dll
 0002:00000208       __imp_CreateThread         000000014002b208     kernel32:KERNEL32.dll
 0002:00000210       __imp_LoadLibraryExW       000000014002b210     kernel32:KERNEL32.dll
 0002:00000218       __imp_WriteConsoleW        000000014002b218     kernel32:KERNEL32.dll
 0002:00000220       __imp_IsValidCodePage      000000014002b220     kernel32:KERNEL32.dll
 0002:00000228       __imp_GetACP               000000014002b228     kernel32:KERNEL32.dll
 0002:00000230       __imp_GetOEMCP             000000014002b230     kernel32:KERNEL32.dll
 0002:00000238       __imp_GetCPInfo            000000014002b238     kernel32:KERNEL32.dll
 0002:00000240       __imp_HeapFree             000000014002b240     kernel32:KERNEL32.dll
 0002:00000248       __imp_HeapReAlloc          000000014002b248     kernel32:KERNEL32.dll
 0002:00000250       __imp_HeapQueryInformation 000000014002b250     kernel32:KERNEL32.dll
 0002:00000258       __imp_HeapAlloc            000000014002b258     kernel32:KERNEL32.dll
 0002:00000260       __imp_RaiseException       000000014002b260     kernel32:KERNEL32.dll
 0002:00000268       \177KERNEL32_NULL_THUNK_DATA 000000014002b268     kernel32:KERNEL32.dll
 0002:00000270       __imp_ReleaseDC            000000014002b270     User32:USER32.dll
 0002:00000278       __imp_DispatchMessageA     000000014002b278     User32:USER32.dll
 0002:00000280       __imp_PeekMessageA         000000014002b280     User32:USER32.dll
 0002:00000288       __imp_GetClientRect        000000014002b288     User32:USER32.dll
 0002:00000290       __imp_EndPaint             000000014002b290     User32:USER32.dll
 0002:00000298       __imp_BeginPaint           000000014002b298     User32:USER32.dll
 0002:000002a0       __imp_TranslateMessage     000000014002b2a0     User32:USER32.dll
 0002:000002a8       __imp_GetDC                000000014002b2a8     User32:USER32.dll
 0002:000002b0       __imp_CreateWindowExA      000000014002b2b0     User32:USER32.dll
 0002:000002b8       __imp_RegisterClassA       000000014002b2b8     User32:USER32.dll
 0002:000002c0       __imp_DefWindowProcA       000000014002b2c0     User32:USER32.dll
 0002:000002c8       \177USER32_NULL_THUNK_DATA 000000014002b2c8     User32:USER32.dll
 0002:000002d0       __imp_timeEndPeriod        000000014002b2d0     winmm:WINMM.dll
 0002:000002d8       __imp_timeBeginPeriod      000000014002b2d8     winmm:WINMM.dll
 0002:000002e0       \177WINMM_NULL_THUNK_DATA  000000014002b2e0     winmm:WINMM.dll
 0002:000002e8       __xc_a                     000000014002b2e8     LIBCMTD:crt0init.obj
 0002:000002f0       __xc_z                     000000014002b2f0     LIBCMTD:crt0init.obj
 0002:000002f8       __xi_a                     000000014002b2f8     LIBCMTD:crt0init.obj
 0002:00000328       __xi_z                     000000014002b328     LIBCMTD:crt0init.obj
 0002:00000330       __xp_a                     000000014002b330     LIBCMTD:crt0init.obj
 0002:00000350       __xp_z                     000000014002b350     LIBCMTD:crt0init.obj
 0002:00000358       __xt_a                     000000014002b358     LIBCMTD:crt0init.obj
 0002:00000360       __xt_z                     000000014002b360     LIBCMTD:crt0init.obj
 0002:00000468       __real@3f000000            000000014002b468     win32_pong.obj
 0002:0000046c       __real@3f800000            000000014002b46c     win32_pong.obj
 0002:00000470       __real@40000000            000000014002b470     win32_pong.obj
 0002:00000474       __real@41200000            000000014002b474     win32_pong.obj
 0002:00000478       __real@41f00000            000000014002b478     win32_pong.obj
 0002:0000047c       __real@42200000            000000014002b47c     win32_pong.obj
 0002:00000480       __real@42480000            000000014002b480     win32_pong.obj
 0002:00000484       __real@42c80000            000000014002b484     win32_pong.obj
 0002:00000488       __real@447a0000            000000014002b488     win32_pong.obj
 0002:0000048c       __real@5f800000            000000014002b48c     win32_pong.obj
 0002:00000490       __real@bf800000            000000014002b490     win32_pong.obj
 0002:00000498       ??_C@_1CC@MGIEJOME@?$AA?$CI?$AAf?$AAo?$AAr?$AAm?$AAa?$AAt?$AA?5?$AA?$CB?$AA?$DN?$AA?5?$AAN?$AAU?$AAL?$AAL?$AA?$CJ?$AA?$AA@ 000000014002b498     LIBCMTD:vsnprnc.obj
 0002:000004bc       ??_C@_15GANGMFKL@?$AA?$CF?$AAs?$AA?$AA@ 000000014002b4bc     LIBCMTD:vsnprnc.obj
 0002:000004d0       ??_C@_1FE@CKCGICM@?$AAf?$AA?3?$AA?2?$AAd?$AAd?$AA?2?$AAv?$AAc?$AAt?$AAo?$AAo?$AAl?$AAs?$AA?2?$AAc?$AAr?$AAt?$AA?2?$AAc?$AAr?$AAt?$AAw?$AA3?$AA2?$AA?2?$AAs?$AAt?$AAd?$AAi?$AAo?$AA?2?$AAv@ 000000014002b4d0     LIBCMTD:vsnprnc.obj
 0002:00000528       ??_C@_1CE@PCFPEIFI@?$AA_?$AAv?$AAs?$AAn?$AAp?$AAr?$AAi?$AAn?$AAt?$AAf?$AA_?$AAh?$AAe?$AAl?$AAp?$AAe?$AAr?$AA?$AA@ 000000014002b528     LIBCMTD:vsnprnc.obj
 0002:00000550       ??_C@_1EC@FABAOFFO@?$AA?$CI?$AAc?$AAo?$AAu?$AAn?$AAt?$AA?5?$AA?$DN?$AA?$DN?$AA?5?$AA0?$AA?$CJ?$AA?5?$AA?$HM?$AA?$HM?$AA?5?$AA?$CI?$AAs?$AAt?$AAr?$AAi?$AAn?$AAg?$AA?5?$AA?$CB?$AA?$DN?$AA?5?$AAN?$AAU?$AAL?$AAL?$AA?$CJ@ 000000014002b550     LIBCMTD:vsnprnc.obj
 0002:00000598       ??_C@_1BO@MLMCMBKN@?$AAf?$AAo?$AAr?$AAm?$AAa?$AAt?$AA?5?$AA?$CB?$AA?$DN?$AA?5?$AAN?$AAU?$AAL?$AAL?$AA?$AA@ 000000014002b598     LIBCMTD:vsnprnc.obj
 0002:000005b8       ??_C@_1BM@BLJALHEF@?$AA_?$AAv?$AAs?$AAp?$AAr?$AAi?$AAn?$AAt?$AAf?$AA_?$AAs?$AA_?$AAl?$AA?$AA@ 000000014002b5b8     LIBCMTD:vsnprnc.obj
 0002:000005e0       ??_C@_1EE@OKCKIGFK@?$AAs?$AAt?$AAr?$AAi?$AAn?$AAg?$AA?5?$AA?$CB?$AA?$DN?$AA?5?$AAN?$AAU?$AAL?$AAL?$AA?5?$AA?$CG?$AA?$CG?$AA?5?$AAs?$AAi?$AAz?$AAe?$AAI?$AAn?$AAB?$AAy?$AAt?$AAe?$AAs?$AA?5?$AA?$DO?$AA?5@ 000000014002b5e0     LIBCMTD:vsnprnc.obj
 0002:00000628       ??_C@_1DA@HPBFKMEB@?$AA?$CI?$AA?$CC?$AAB?$AAu?$AAf?$AAf?$AAe?$AAr?$AA?5?$AAt?$AAo?$AAo?$AA?5?$AAs?$AAm?$AAa?$AAl?$AAl?$AA?$CC?$AA?0?$AA?5?$AA0?$AA?$CJ?$AA?$AA@ 000000014002b628     LIBCMTD:vsnprnc.obj
 0002:00000658       ??_C@_1BO@MMPELNIM@?$AA_?$AAv?$AAs?$AAn?$AAp?$AAr?$AAi?$AAn?$AAt?$AAf?$AA_?$AAs?$AA_?$AAl?$AA?$AA@ 000000014002b658     LIBCMTD:vsnprnc.obj
 0002:00000678       ??_C@_06OJDGOBKJ@floorf?$AA@ 000000014002b678     LIBCMTD:floorf.obj
 0002:00000680       _FPinit                    000000014002b680     LIBCMTD:fpinit.obj
 0002:000006f8       ??_C@_1BI@MFCLPIBM@?$AAs?$AAt?$AAr?$AA?5?$AA?$CB?$AA?$DN?$AA?5?$AAN?$AAU?$AAL?$AAL?$AA?$AA@ 000000014002b6f8     LIBCMTD:_flsbuf.obj
 0002:00000710       ??_C@_1FC@OBEHAONE@?$AAf?$AA?3?$AA?2?$AAd?$AAd?$AA?2?$AAv?$AAc?$AAt?$AAo?$AAo?$AAl?$AAs?$AA?2?$AAc?$AAr?$AAt?$AA?2?$AAc?$AAr?$AAt?$AAw?$AA3?$AA2?$AA?2?$AAs?$AAt?$AAd?$AAi?$AAo?$AA?2?$AA_@ 000000014002b710     LIBCMTD:_flsbuf.obj
 0002:00000770       ??_C@_1HO@MLMGPAFH@?$AA?$CI?$AA?$CC?$AAi?$AAn?$AAc?$AAo?$AAn?$AAs?$AAi?$AAs?$AAt?$AAe?$AAn?$AAt?$AA?5?$AAI?$AAO?$AAB?$AA?5?$AAf?$AAi?$AAe?$AAl?$AAd?$AAs?$AA?$CC?$AA?0?$AA?5?$AAs?$AAt?$AAr?$AAe@ 000000014002b770     LIBCMTD:_flsbuf.obj
 0002:00000808       ??_C@_1BA@GLMCNLEM@?$AAW?$AAa?$AAr?$AAn?$AAi?$AAn?$AAg?$AA?$AA@ 000000014002b808     LIBCMTD:dbgrptw.obj
 0002:00000818       ??_C@_1M@ILHOPKA@?$AAE?$AAr?$AAr?$AAo?$AAr?$AA?$AA@ 000000014002b818     LIBCMTD:dbgrptw.obj
 0002:00000828       ??_C@_1CC@CGHMNGDG@?$AAA?$AAs?$AAs?$AAe?$AAr?$AAt?$AAi?$AAo?$AAn?$AA?5?$AAF?$AAa?$AAi?$AAl?$AAe?$AAd?$AA?$AA@ 000000014002b828     LIBCMTD:dbgrptw.obj
 0002:00000850       ??_C@_17LGKOMLJ@?$AA?4?$AA?4?$AA?4?$AA?$AA@ 000000014002b850     LIBCMTD:dbgrptw.obj
 0002:00000860       ??_C@_1EO@JACJHHCK@?$AAf?$AA?3?$AA?2?$AAd?$AAd?$AA?2?$AAv?$AAc?$AAt?$AAo?$AAo?$AAl?$AAs?$AA?2?$AAc?$AAr?$AAt?$AA?2?$AAc?$AAr?$AAt?$AAw?$AA3?$AA2?$AA?2?$AAm?$AAi?$AAs?$AAc?$AA?2?$AAd?$AAb@ 000000014002b860     LIBCMTD:dbgrptw.obj
 0002:000008b0       ??_C@_1CI@PGJIFDEK@?$AA_?$AA_?$AAc?$AAr?$AAt?$AAM?$AAe?$AAs?$AAs?$AAa?$AAg?$AAe?$AAW?$AAi?$AAn?$AAd?$AAo?$AAw?$AAW?$AA?$AA@ 000000014002b8b0     LIBCMTD:dbgrptw.obj
 0002:000008e0       ??_C@_1GI@DEDNNLCI@?$AAw?$AAc?$AAs?$AAc?$AAp?$AAy?$AA_?$AAs?$AA?$CI?$AAs?$AAz?$AAE?$AAx?$AAe?$AAN?$AAa?$AAm?$AAe?$AA?0?$AA?5?$AA2?$AA6?$AA0?$AA?0?$AA?5?$AAL?$AA?$CC?$AA?$DM?$AAp?$AAr?$AAo?$AAg@ 000000014002b8e0     LIBCMTD:dbgrptw.obj
 0002:00000948       ??_C@_1CO@EAEJAADC@?$AA?$DM?$AAp?$AAr?$AAo?$AAg?$AAr?$AAa?$AAm?$AA?5?$AAn?$AAa?$AAm?$AAe?$AA?5?$AAu?$AAn?$AAk?$AAn?$AAo?$AAw?$AAn?$AA?$DO?$AA?$AA@ 000000014002b948     LIBCMTD:dbgrptw.obj
 0002:00000980       ??_C@_1NO@LECLLHOL@?$AAm?$AAe?$AAm?$AAc?$AAp?$AAy?$AA_?$AAs?$AA?$CI?$AAs?$AAz?$AAS?$AAh?$AAo?$AAr?$AAt?$AAP?$AAr?$AAo?$AAg?$AAN?$AAa?$AAm?$AAe?$AA?0?$AA?5?$AAs?$AAi?$AAz?$AAe?$AAo?$AAf@ 000000014002b980     LIBCMTD:dbgrptw.obj
 0002:00000a60       ??_C@_1OG@PMPPFHAF@?$AA?6?$AA?6?$AAF?$AAo?$AAr?$AA?5?$AAi?$AAn?$AAf?$AAo?$AAr?$AAm?$AAa?$AAt?$AAi?$AAo?$AAn?$AA?5?$AAo?$AAn?$AA?5?$AAh?$AAo?$AAw?$AA?5?$AAy?$AAo?$AAu?$AAr?$AA?5?$AAp?$AAr@ 000000014002ba60     LIBCMTD:dbgrptw.obj
 0002:00000b48       ??_C@_11LOCGONAA@?$AA?$AA@ 000000014002bb48     LIBCMTD:dbgrptw.obj
 0002:00000b50       ??_C@_1BK@PEDCIPMA@?$AAE?$AAx?$AAp?$AAr?$AAe?$AAs?$AAs?$AAi?$AAo?$AAn?$AA?3?$AA?5?$AA?$AA@ 000000014002bb50     LIBCMTD:dbgrptw.obj
 0002:00000b6c       ??_C@_15IABLJNFO@?$AA?6?$AA?6?$AA?$AA@ 000000014002bb6c     LIBCMTD:dbgrptw.obj
 0002:00000b78       ??_C@_1BA@GLLGCPCK@?$AA?6?$AAL?$AAi?$AAn?$AAe?$AA?3?$AA?5?$AA?$AA@ 000000014002bb78     LIBCMTD:dbgrptw.obj
 0002:00000b88       ??_C@_1BA@LNHECFIM@?$AA?6?$AAF?$AAi?$AAl?$AAe?$AA?3?$AA?5?$AA?$AA@ 000000014002bb88     LIBCMTD:dbgrptw.obj
 0002:00000b98       ??_C@_1BE@CGCJKGHI@?$AA?6?$AAM?$AAo?$AAd?$AAu?$AAl?$AAe?$AA?3?$AA?5?$AA?$AA@ 000000014002bb98     LIBCMTD:dbgrptw.obj
 0002:00000bb0       ??_C@_1KM@HNMIBKJH@?$AAD?$AAe?$AAb?$AAu?$AAg?$AA?5?$AA?$CF?$AAs?$AA?$CB?$AA?6?$AA?6?$AAP?$AAr?$AAo?$AAg?$AAr?$AAa?$AAm?$AA?3?$AA?5?$AA?$CF?$AAs?$AA?$CF?$AAs?$AA?$CF?$AAs?$AA?$CF?$AAs?$AA?$CF?$AAs?$AA?$CF?$AAs@ 000000014002bbb0     LIBCMTD:dbgrptw.obj
 0002:00000c60       ??_C@_1BI@KALLJECN@?$AA?$CI?$AA?$CK?$AA_?$AAe?$AAr?$AAr?$AAn?$AAo?$AA?$CI?$AA?$CJ?$AA?$CJ?$AA?$AA@ 000000014002bc60     LIBCMTD:dbgrptw.obj
 0002:00000c80       ??_C@_1JI@EACPGHID@?$AAw?$AAc?$AAs?$AAc?$AAp?$AAy?$AA_?$AAs?$AA?$CI?$AAs?$AAz?$AAO?$AAu?$AAt?$AAM?$AAe?$AAs?$AAs?$AAa?$AAg?$AAe?$AA?0?$AA?5?$AA4?$AA0?$AA9?$AA6?$AA?0?$AA?5?$AAL?$AA?$CC?$AA_@ 000000014002bc80     LIBCMTD:dbgrptw.obj
 0002:00000d20       ??_C@_1FG@BBOLDHGF@?$AA_?$AAC?$AAr?$AAt?$AAD?$AAb?$AAg?$AAR?$AAe?$AAp?$AAo?$AAr?$AAt?$AA?3?$AA?5?$AAS?$AAt?$AAr?$AAi?$AAn?$AAg?$AA?5?$AAt?$AAo?$AAo?$AA?5?$AAl?$AAo?$AAn?$AAg?$AA?5?$AAo@ 000000014002bd20     LIBCMTD:dbgrptw.obj
 0002:00000d80       ??_C@_1EK@MBDPDCGA@?$AAM?$AAi?$AAc?$AAr?$AAo?$AAs?$AAo?$AAf?$AAt?$AA?5?$AAV?$AAi?$AAs?$AAu?$AAa?$AAl?$AA?5?$AAC?$AA?$CL?$AA?$CL?$AA?5?$AAR?$AAu?$AAn?$AAt?$AAi?$AAm?$AAe?$AA?5?$AAL?$AAi?$AAb@ 000000014002bd80     LIBCMTD:dbgrptw.obj
 0002:00000dcc       ??_C@_06OJHGLDPL@?$CInull?$CJ?$AA@ 000000014002bdcc     LIBCMTD:output.obj
 0002:00000dd8       ??_C@_1O@CEDCILHN@?$AA?$CI?$AAn?$AAu?$AAl?$AAl?$AA?$CJ?$AA?$AA@ 000000014002bdd8     LIBCMTD:output.obj
 0002:00000df0       __lookuptable              000000014002bdf0     LIBCMTD:output.obj
 0002:00000e50       ??_C@_1CC@FADMNIL@?$AA?$CI?$AAs?$AAt?$AAr?$AAe?$AAa?$AAm?$AA?5?$AA?$CB?$AA?$DN?$AA?5?$AAN?$AAU?$AAL?$AAL?$AA?$CJ?$AA?$AA@ 000000014002be50     LIBCMTD:output.obj
 0002:00000e80       ??_C@_1FA@KMIJDCIC@?$AAf?$AA?3?$AA?2?$AAd?$AAd?$AA?2?$AAv?$AAc?$AAt?$AAo?$AAo?$AAl?$AAs?$AA?2?$AAc?$AAr?$AAt?$AA?2?$AAc?$AAr?$AAt?$AAw?$AA3?$AA2?$AA?2?$AAs?$AAt?$AAd?$AAi?$AAo?$AA?2?$AAo@ 000000014002be80     LIBCMTD:output.obj
 0002:00000ed0       ??_C@_1BAA@ODEGEDCK@?$AA?$CI?$AA?5?$AA?$CI?$AA_?$AAS?$AAt?$AAr?$AAe?$AAa?$AAm?$AA?9?$AA?$DO?$AA_?$AAf?$AAl?$AAa?$AAg?$AA?5?$AA?$CG?$AA?5?$AA_?$AAI?$AAO?$AAS?$AAT?$AAR?$AAG?$AA?$CJ?$AA?5?$AA?$HM?$AA?$HM?$AA?5@ 000000014002bed0     LIBCMTD:output.obj
 0002:00000fd0       ??_C@_1CC@IFFHEMNF@?$AA?$CI?$AAc?$AAh?$AA?5?$AA?$CB?$AA?$DN?$AA?5?$AA_?$AAT?$AA?$CI?$AA?8?$AA?2?$AA0?$AA?8?$AA?$CJ?$AA?$CJ?$AA?$AA@ 000000014002bfd0     LIBCMTD:output.obj
 0002:00001000       ??_C@_1EK@PNGFDECN@?$AA?$CI?$AA?$CC?$AA?8?$AAn?$AA?8?$AA?5?$AAf?$AAo?$AAr?$AAm?$AAa?$AAt?$AA?5?$AAs?$AAp?$AAe?$AAc?$AAi?$AAf?$AAi?$AAe?$AAr?$AA?5?$AAd?$AAi?$AAs?$AAa?$AAb?$AAl?$AAe?$AAd?$AA?$CC@ 000000014002c000     LIBCMTD:output.obj
 0002:00001050       ??_C@_0CI@CMOPBIOD@f?3?2dd?2vctools?2crt?2crtw32?2stdio?2o@ 000000014002c050     LIBCMTD:output.obj
 0002:00001080       __lookuptable_s            000000014002c080     LIBCMTD:outputs.obj
 0002:000010e0       ??_C@_1BI@COFBLHCG@?$AA_?$AAo?$AAu?$AAt?$AAp?$AAu?$AAt?$AA_?$AAs?$AA_?$AAl?$AA?$AA@ 000000014002c0e0     LIBCMTD:outputs.obj
 0002:00001100       ??_C@_1EE@DMAIGNBG@?$AA?$CI?$AA?$CC?$AAI?$AAn?$AAc?$AAo?$AAr?$AAr?$AAe?$AAc?$AAt?$AA?5?$AAf?$AAo?$AAr?$AAm?$AAa?$AAt?$AA?5?$AAs?$AAp?$AAe?$AAc?$AAi?$AAf?$AAi?$AAe?$AAr?$AA?$CC?$AA?0?$AA?5?$AA0@ 000000014002c100     LIBCMTD:outputs.obj
 0002:00001150       ??_C@_1FK@LNCFKALM@?$AA?$CI?$AA?$CI?$AAs?$AAt?$AAa?$AAt?$AAe?$AA?5?$AA?$DN?$AA?$DN?$AA?5?$AAS?$AAT?$AA_?$AAN?$AAO?$AAR?$AAM?$AAA?$AAL?$AA?$CJ?$AA?5?$AA?$HM?$AA?$HM?$AA?5?$AA?$CI?$AAs?$AAt?$AAa?$AAt?$AAe?$AA?5@ 000000014002c150     LIBCMTD:outputs.obj
 0002:000011d8       ??_C@_04HJMOFLDF@Free?$AA@ 000000014002c1d8     LIBCMTD:dbgheap.obj
 0002:000011e0       ??_C@_06EFAGIKOH@Normal?$AA@ 000000014002c1e0     LIBCMTD:dbgheap.obj
 0002:000011e8       ??_C@_03OGPFLFLO@CRT?$AA@  000000014002c1e8     LIBCMTD:dbgheap.obj
 0002:000011ec       ??_C@_06KMEJCCGM@Ignore?$AA@ 000000014002c1ec     LIBCMTD:dbgheap.obj
 0002:000011f4       ??_C@_06PJIGMIJB@Client?$AA@ 000000014002c1f4     LIBCMTD:dbgheap.obj
 0002:00001200       ??_C@_1CE@LJFEPPMP@?$AA_?$AAC?$AAr?$AAt?$AAC?$AAh?$AAe?$AAc?$AAk?$AAM?$AAe?$AAm?$AAo?$AAr?$AAy?$AA?$CI?$AA?$CJ?$AA?$AA@ 000000014002c200     LIBCMTD:dbgheap.obj
 0002:00001230       ??_C@_1FA@JKEKCOIC@?$AAf?$AA?3?$AA?2?$AAd?$AAd?$AA?2?$AAv?$AAc?$AAt?$AAo?$AAo?$AAl?$AAs?$AA?2?$AAc?$AAr?$AAt?$AA?2?$AAc?$AAr?$AAt?$AAw?$AA3?$AA2?$AA?2?$AAm?$AAi?$AAs?$AAc?$AA?2?$AAd?$AAb@ 000000014002c230     LIBCMTD:dbgheap.obj
 0002:00001280       ??_C@_0DF@BBEGIFEK@Client?5hook?5allocation?5failure?5a@ 000000014002c280     LIBCMTD:dbgheap.obj
 0002:000012b8       ??_C@_0CB@CCLOLAHO@Client?5hook?5allocation?5failure?4?6@ 000000014002c2b8     LIBCMTD:dbgheap.obj
 0002:000012dc       ??_C@_02DKCKIIND@?$CFs?$AA@ 000000014002c2dc     LIBCMTD:dbgheap.obj
 0002:000012e0       ??_C@_0CF@BICKFLAF@Invalid?5allocation?5size?3?5?$CFIu?5byt@ 000000014002c2e0     LIBCMTD:dbgheap.obj
 0002:00001308       ??_C@_0DC@JEMAGEKG@Error?3?5memory?5allocation?3?5bad?5me@ 000000014002c308     LIBCMTD:dbgheap.obj
 0002:00001340       ??_C@_0DI@KKJPDPGM@Client?5hook?5re?9allocation?5failur@ 000000014002c340     LIBCMTD:dbgheap.obj
 0002:00001378       ??_C@_0CE@DOFMDOL@Client?5hook?5re?9allocation?5failur@ 000000014002c378     LIBCMTD:dbgheap.obj
 0002:000013a0       ??_C@_0ED@GPCPBAGP@Invalid?5allocation?5size?3?5?$CFIu?5byt@ 000000014002c3a0     LIBCMTD:dbgheap.obj
 0002:000013f0       ??_C@_0FA@EFEIGJKG@Error?3?5memory?5allocation?3?5bad?5me@ 000000014002c3f0     LIBCMTD:dbgheap.obj
 0002:00001440       ??_C@_0EM@LGFLMAGJ@The?5Block?5at?50x?$CFp?5was?5allocated?5@ 000000014002c440     LIBCMTD:dbgheap.obj
 0002:00001490       ??_C@_1EE@GFOPCECE@?$AA_?$AAC?$AAr?$AAt?$AAI?$AAs?$AAV?$AAa?$AAl?$AAi?$AAd?$AAH?$AAe?$AAa?$AAp?$AAP?$AAo?$AAi?$AAn?$AAt?$AAe?$AAr?$AA?$CI?$AAp?$AAU?$AAs?$AAe?$AAr?$AAD?$AAa?$AAt?$AAa@ 000000014002c490     LIBCMTD:dbgheap.obj
 0002:000014e0       ??_C@_1IK@DCPKDGNH@?$AAp?$AAO?$AAl?$AAd?$AAB?$AAl?$AAo?$AAc?$AAk?$AA?9?$AA?$DO?$AAn?$AAL?$AAi?$AAn?$AAe?$AA?5?$AA?$DN?$AA?$DN?$AA?5?$AAI?$AAG?$AAN?$AAO?$AAR?$AAE?$AA_?$AAL?$AAI?$AAN?$AAE?$AA?5@ 000000014002c4e0     LIBCMTD:dbgheap.obj
 0002:00001570       ??_C@_0DA@HFBKENN@Error?3?5possible?5heap?5corruption?5@ 000000014002c570     LIBCMTD:dbgheap.obj
 0002:000015a0       ??_C@_1GE@PCKLOLAO@?$AAf?$AAR?$AAe?$AAa?$AAl?$AAl?$AAo?$AAc?$AA?5?$AA?$HM?$AA?$HM?$AA?5?$AA?$CI?$AA?$CB?$AAf?$AAR?$AAe?$AAa?$AAl?$AAl?$AAo?$AAc?$AA?5?$AA?$CG?$AA?$CG?$AA?5?$AAp?$AAN?$AAe?$AAw?$AAB?$AAl@ 000000014002c5a0     LIBCMTD:dbgheap.obj
 0002:00001608       ??_C@_1DC@GEFKNOOL@?$AA_?$AAp?$AAL?$AAa?$AAs?$AAt?$AAB?$AAl?$AAo?$AAc?$AAk?$AA?5?$AA?$DN?$AA?$DN?$AA?5?$AAp?$AAO?$AAl?$AAd?$AAB?$AAl?$AAo?$AAc?$AAk?$AA?$AA@ 000000014002c608     LIBCMTD:dbgheap.obj
 0002:00001640       ??_C@_1DE@KOOKLFBB@?$AA_?$AAp?$AAF?$AAi?$AAr?$AAs?$AAt?$AAB?$AAl?$AAo?$AAc?$AAk?$AA?5?$AA?$DN?$AA?$DN?$AA?5?$AAp?$AAO?$AAl?$AAd?$AAB?$AAl?$AAo?$AAc?$AAk?$AA?$AA@ 000000014002c640     LIBCMTD:dbgheap.obj
 0002:00001678       ??_C@_1CE@CJACEFBA@?$AAp?$AAU?$AAs?$AAe?$AAr?$AAD?$AAa?$AAt?$AAa?$AA?5?$AA?$CB?$AA?$DN?$AA?5?$AAN?$AAU?$AAL?$AAL?$AA?$AA@ 000000014002c678     LIBCMTD:dbgheap.obj
 0002:000016a0       ??_C@_0EJ@HEIBCIMJ@The?5Block?5at?50x?$CFp?5was?5allocated?5@ 000000014002c6a0     LIBCMTD:dbgheap.obj
 0002:000016f0       ??_C@_0BL@KEIPLFAC@Client?5hook?5free?5failure?4?6?$AA@ 000000014002c6f0     LIBCMTD:dbgheap.obj
 0002:00001710       ??_C@_1EO@LHDAJOCM@?$AA_?$AAB?$AAL?$AAO?$AAC?$AAK?$AA_?$AAT?$AAY?$AAP?$AAE?$AA_?$AAI?$AAS?$AA_?$AAV?$AAA?$AAL?$AAI?$AAD?$AA?$CI?$AAp?$AAH?$AAe?$AAa?$AAd?$AA?9?$AA?$DO?$AAn?$AAB?$AAl?$AAo@ 000000014002c710     LIBCMTD:dbgheap.obj
 0002:00001760       ??_C@_0KI@JGFOHMEB@HEAP?5CORRUPTION?5DETECTED?3?5before@ 000000014002c760     LIBCMTD:dbgheap.obj
 0002:00001810       ??_C@_0IK@PJCGLBOB@HEAP?5CORRUPTION?5DETECTED?3?5before@ 000000014002c810     LIBCMTD:dbgheap.obj
 0002:000018a0       ??_C@_0KE@MBMNHHHN@HEAP?5CORRUPTION?5DETECTED?3?5after?5@ 000000014002c8a0     LIBCMTD:dbgheap.obj
 0002:00001950       ??_C@_0IG@LEMBDCJK@HEAP?5CORRUPTION?5DETECTED?3?5after?5@ 000000014002c950     LIBCMTD:dbgheap.obj
 0002:000019e0       ??_C@_1HK@HPCBMDFG@?$AAp?$AAH?$AAe?$AAa?$AAd?$AA?9?$AA?$DO?$AAn?$AAL?$AAi?$AAn?$AAe?$AA?5?$AA?$DN?$AA?$DN?$AA?5?$AAI?$AAG?$AAN?$AAO?$AAR?$AAE?$AA_?$AAL?$AAI?$AAN?$AAE?$AA?5?$AA?$CG?$AA?$CG?$AA?5?$AAp@ 000000014002c9e0     LIBCMTD:dbgheap.obj
 0002:00001a60       ??_C@_1DM@ODCJIDCP@?$AAp?$AAH?$AAe?$AAa?$AAd?$AA?9?$AA?$DO?$AAn?$AAB?$AAl?$AAo?$AAc?$AAk?$AAU?$AAs?$AAe?$AA?5?$AA?$DN?$AA?$DN?$AA?5?$AAn?$AAB?$AAl?$AAo?$AAc?$AAk?$AAU?$AAs?$AAe?$AA?$AA@ 000000014002ca60     LIBCMTD:dbgheap.obj
 0002:00001aa0       ??_C@_1CK@DMAGEMBG@?$AA_?$AAp?$AAL?$AAa?$AAs?$AAt?$AAB?$AAl?$AAo?$AAc?$AAk?$AA?5?$AA?$DN?$AA?$DN?$AA?5?$AAp?$AAH?$AAe?$AAa?$AAd?$AA?$AA@ 000000014002caa0     LIBCMTD:dbgheap.obj
 0002:00001ad0       ??_C@_1CM@MMAADDMD@?$AA_?$AAp?$AAF?$AAi?$AAr?$AAs?$AAt?$AAB?$AAl?$AAo?$AAc?$AAk?$AA?5?$AA?$DN?$AA?$DN?$AA?5?$AAp?$AAH?$AAe?$AAa?$AAd?$AA?$AA@ 000000014002cad0     LIBCMTD:dbgheap.obj
 0002:00001b00       ??_C@_1BG@MBKOGDLD@?$AA_?$AAm?$AAs?$AAi?$AAz?$AAe?$AA_?$AAd?$AAb?$AAg?$AA?$AA@ 000000014002cb00     LIBCMTD:dbgheap.obj
 0002:00001b18       ??_C@_0CE@MKKHMBMK@_heapchk?5fails?5with?5_HEAPBADBEGI@ 000000014002cb18     LIBCMTD:dbgheap.obj
 0002:00001b40       ??_C@_0CD@CPKEAPBD@_heapchk?5fails?5with?5_HEAPBADNODE@ 000000014002cb40     LIBCMTD:dbgheap.obj
 0002:00001b68       ??_C@_0CC@MJGLGBDG@_heapchk?5fails?5with?5_HEAPBADEND?4@ 000000014002cb68     LIBCMTD:dbgheap.obj
 0002:00001b90       ??_C@_0CC@MFFCHFHO@_heapchk?5fails?5with?5_HEAPBADPTR?4@ 000000014002cb90     LIBCMTD:dbgheap.obj
 0002:00001bb8       ??_C@_0CL@HNNNMKMJ@_heapchk?5fails?5with?5unknown?5retu@ 000000014002cbb8     LIBCMTD:dbgheap.obj
 0002:00001be8       ??_C@_07OHKEFPKJ@DAMAGED?$AA@ 000000014002cbe8     LIBCMTD:dbgheap.obj
 0002:00001bf0       ??_C@_0KA@IHNJJKPL@HEAP?5CORRUPTION?5DETECTED?3?5on?5top@ 000000014002cbf0     LIBCMTD:dbgheap.obj
 0002:00001c90       ??_C@_0IC@BBJIOOJH@HEAP?5CORRUPTION?5DETECTED?3?5on?5top@ 000000014002cc90     LIBCMTD:dbgheap.obj
 0002:00001d20       ??_C@_0EG@DGJMPDBH@?$CFhs?5located?5at?50x?$CFp?5is?5?$CFIu?5bytes@ 000000014002cd20     LIBCMTD:dbgheap.obj
 0002:00001d68       ??_C@_0CI@JMLBEDHJ@?$CFhs?5located?5at?50x?$CFp?5is?5?$CFIu?5bytes@ 000000014002cd68     LIBCMTD:dbgheap.obj
 0002:00001d90       ??_C@_1BHO@NNANJNF@?$AA?$CI?$AAf?$AAN?$AAe?$AAw?$AAB?$AAi?$AAt?$AAs?$AA?$DN?$AA?$DN?$AA_?$AAC?$AAR?$AAT?$AAD?$AAB?$AAG?$AA_?$AAR?$AAE?$AAP?$AAO?$AAR?$AAT?$AA_?$AAF?$AAL?$AAA?$AAG?$AA?$CJ?$AA?5@ 000000014002cd90     LIBCMTD:dbgheap.obj
 0002:00001f10       ??_C@_1BO@GJFDNMNF@?$AA_?$AAC?$AAr?$AAt?$AAS?$AAe?$AAt?$AAD?$AAb?$AAg?$AAF?$AAl?$AAa?$AAg?$AA?$AA@ 000000014002cf10     LIBCMTD:dbgheap.obj
 0002:00001f30       ??_C@_1BM@MIMANDHC@?$AAs?$AAt?$AAa?$AAt?$AAe?$AA?5?$AA?$CB?$AA?$DN?$AA?5?$AAN?$AAU?$AAL?$AAL?$AA?$AA@ 000000014002cf30     LIBCMTD:dbgheap.obj
 0002:00001f50       ??_C@_1CE@NJJKELF@?$AA_?$AAC?$AAr?$AAt?$AAM?$AAe?$AAm?$AAC?$AAh?$AAe?$AAc?$AAk?$AAp?$AAo?$AAi?$AAn?$AAt?$AA?$AA@ 000000014002cf50     LIBCMTD:dbgheap.obj
 0002:00001f78       ??_C@_0DP@LEFMFBOD@Bad?5memory?5block?5found?5at?50x?$CFp?4?6@ 000000014002cf78     LIBCMTD:dbgheap.obj
 0002:00001fb8       ??_C@_0CB@EAAIGELO@Bad?5memory?5block?5found?5at?50x?$CFp?4?6@ 000000014002cfb8     LIBCMTD:dbgheap.obj
 0002:00001fdc       ??_C@_05MKKEDADM@?$CF?42X?5?$AA@ 000000014002cfdc     LIBCMTD:dbgheap.obj
 0002:00001fe8       ??_C@_1CG@LPFIACGM@?$AA_?$AAp?$AAr?$AAi?$AAn?$AAt?$AAM?$AAe?$AAm?$AAB?$AAl?$AAo?$AAc?$AAk?$AAD?$AAa?$AAt?$AAa?$AA?$AA@ 000000014002cfe8     LIBCMTD:dbgheap.obj
 0002:00002010       ??_C@_0BA@HJBKCELP@?5Data?3?5?$DM?$CFs?$DO?5?$CFs?6?$AA@ 000000014002d010     LIBCMTD:dbgheap.obj
 0002:00002020       ??_C@_0BE@KCIPKCIA@Dumping?5objects?5?9?$DO?6?$AA@ 000000014002d020     LIBCMTD:dbgheap.obj
 0002:00002038       ??_C@_0BE@OIEFNFL@?$CDFile?5Error?$CD?$CI?$CFd?$CJ?5?3?5?$AA@ 000000014002d038     LIBCMTD:dbgheap.obj
 0002:00002050       ??_C@_0L@JMEFFCCJ@?$CFhs?$CI?$CFd?$CJ?5?3?5?$AA@ 000000014002d050     LIBCMTD:dbgheap.obj
 0002:0000205c       ??_C@_06PKLGBFGM@?$HL?$CFld?$HN?5?$AA@ 000000014002d05c     LIBCMTD:dbgheap.obj
 0002:00002068       ??_C@_0DD@GHNAAKBB@client?5block?5at?50x?$CFp?0?5subtype?5?$CFx@ 000000014002d068     LIBCMTD:dbgheap.obj
 0002:000020a0       ??_C@_0CH@FAGDDGPN@normal?5block?5at?50x?$CFp?0?5?$CFIu?5bytes?5@ 000000014002d0a0     LIBCMTD:dbgheap.obj
 0002:000020c8       ??_C@_0DA@MDLBNIBM@crt?5block?5at?50x?$CFp?0?5subtype?5?$CFx?0?5?$CF@ 000000014002d0c8     LIBCMTD:dbgheap.obj
 0002:000020f8       ??_C@_0BH@GFGKJDCO@Object?5dump?5complete?4?6?$AA@ 000000014002d0f8     LIBCMTD:dbgheap.obj
 0002:00002110       ??_C@_0BI@JBFPOEJA@Detected?5memory?5leaks?$CB?6?$AA@ 000000014002d110     LIBCMTD:dbgheap.obj
 0002:00002138       ??_C@_1BI@ICGGMGLK@?$AAb?$AAu?$AAf?$AA?5?$AA?$CB?$AA?$DN?$AA?5?$AAN?$AAU?$AAL?$AAL?$AA?$AA@ 000000014002d138     LIBCMTD:cvt.obj
 0002:00002150       ??_C@_1EG@OHONNKNN@?$AAf?$AA?3?$AA?2?$AAd?$AAd?$AA?2?$AAv?$AAc?$AAt?$AAo?$AAo?$AAl?$AAs?$AA?2?$AAc?$AAr?$AAt?$AA?2?$AAf?$AAp?$AAw?$AA3?$AA2?$AA?2?$AAc?$AAo?$AAn?$AAv?$AA?2?$AAc?$AAv?$AAt@ 000000014002d150     LIBCMTD:cvt.obj
 0002:00002198       ??_C@_1BE@OLBNEILL@?$AA_?$AAc?$AAf?$AAt?$AAo?$AAe?$AA2?$AA_?$AAl?$AA?$AA@ 000000014002d198     LIBCMTD:cvt.obj
 0002:000021b0       ??_C@_1CA@CBMNPEO@?$AAs?$AAi?$AAz?$AAe?$AAI?$AAn?$AAB?$AAy?$AAt?$AAe?$AAs?$AA?5?$AA?$DO?$AA?5?$AA0?$AA?$AA@ 000000014002d1b0     LIBCMTD:cvt.obj
 0002:000021d0       ??_C@_1HE@NACBNDPP@?$AAs?$AAi?$AAz?$AAe?$AAI?$AAn?$AAB?$AAy?$AAt?$AAe?$AAs?$AA?5?$AA?$DO?$AA?5?$AA?$CI?$AAs?$AAi?$AAz?$AAe?$AA_?$AAt?$AA?$CJ?$AA?$CI?$AA3?$AA?5?$AA?$CL?$AA?5?$AA?$CI?$AAn?$AAd?$AAe?$AAc@ 000000014002d1d0     LIBCMTD:cvt.obj
 0002:00002250       ??_C@_1LE@EOIFGNCJ@?$AAs?$AAt?$AAr?$AAc?$AAp?$AAy?$AA_?$AAs?$AA?$CI?$AAp?$AA?0?$AA?5?$AA?$CI?$AAs?$AAi?$AAz?$AAe?$AAI?$AAn?$AAB?$AAy?$AAt?$AAe?$AAs?$AA?5?$AA?$DN?$AA?$DN?$AA?5?$AA?$CI?$AAs?$AAi?$AAz@ 000000014002d250     LIBCMTD:cvt.obj
 0002:00002304       ??_C@_05KLBDPFGC@e?$CL000?$AA@ 000000014002d304     LIBCMTD:cvt.obj
 0002:00002310       ??_C@_1BC@INKAPMHI@?$AA_?$AAc?$AAf?$AAt?$AAo?$AAe?$AA_?$AAl?$AA?$AA@ 000000014002d310     LIBCMTD:cvt.obj
 0002:00002328       ??_C@_1BC@JOKPCIC@?$AA_?$AAc?$AAf?$AAt?$AAo?$AAa?$AA_?$AAl?$AA?$AA@ 000000014002d328     LIBCMTD:cvt.obj
 0002:00002340       ??_C@_1FC@IKIMAMJB@?$AAs?$AAi?$AAz?$AAe?$AAI?$AAn?$AAB?$AAy?$AAt?$AAe?$AAs?$AA?5?$AA?$DO?$AA?5?$AA?$CI?$AAs?$AAi?$AAz?$AAe?$AA_?$AAt?$AA?$CJ?$AA?$CI?$AA1?$AA?5?$AA?$CL?$AA?5?$AA4?$AA?5?$AA?$CL?$AA?5?$AAn@ 000000014002d340     LIBCMTD:cvt.obj
 0002:00002398       ??_C@_1BE@CKPDLI@?$AA_?$AAc?$AAf?$AAt?$AAo?$AAf?$AA2?$AA_?$AAl?$AA?$AA@ 000000014002d398     LIBCMTD:cvt.obj
 0002:000023b0       ??_C@_1BC@DCPPLJL@?$AA_?$AAc?$AAf?$AAt?$AAo?$AAf?$AA_?$AAl?$AA?$AA@ 000000014002d3b0     LIBCMTD:cvt.obj
 0002:000023c8       ??_C@_1BC@MPIFPLAF@?$AA_?$AAc?$AAf?$AAt?$AAo?$AAg?$AA_?$AAl?$AA?$AA@ 000000014002d3c8     LIBCMTD:cvt.obj
 0002:000023e0       __real@0000000000000000    000000014002d3e0     LIBCMTD:cvt.obj
 0002:000023f0       _XcptActTab                000000014002d3f0     LIBCMTD:winxfltr.obj
 0002:000024b0       _XcptActTabCount           000000014002d4b0     LIBCMTD:winxfltr.obj
 0002:000024b4       _XcptActTabSize            000000014002d4b4     LIBCMTD:winxfltr.obj
 0002:000024b8       _First_FPE_Indx            000000014002d4b8     LIBCMTD:winxfltr.obj
 0002:000024bc       _Num_FPE                   000000014002d4bc     LIBCMTD:winxfltr.obj
 0002:000024c0       ??_C@_0CM@KPPOKOAI@f?3?2dd?2vctools?2crt?2crtw32?2startup@ 000000014002d4c0     LIBCMTD:tidtable.obj
 0002:000024f0       ??_C@_1BI@BGOHAHKC@?$AAm?$AAs?$AAc?$AAo?$AAr?$AAe?$AAe?$AA?4?$AAd?$AAl?$AAl?$AA?$AA@ 000000014002d4f0     LIBCMTD:crt0dat.obj
 0002:00002508       ??_C@_0P@MIGLKIOC@CorExitProcess?$AA@ 000000014002d508     LIBCMTD:crt0dat.obj
 0002:00002518       ??_C@_0CI@BIOGDJKL@f?3?2dd?2vctools?2crt?2crtw32?2lowio?2i@ 000000014002d518     LIBCMTD:ioinit.obj
 0002:00002540       ??_C@_0CL@OBKFGCKK@f?3?2dd?2vctools?2crt?2crtw32?2startup@ 000000014002d540     LIBCMTD:stdargv.obj
 0002:00002570       ??_C@_0CL@BJBFGFLH@f?3?2dd?2vctools?2crt?2crtw32?2startup@ 000000014002d570     LIBCMTD:stdenvp.obj
 0002:000025a0       ??_C@_1FG@MHBLOJIO@?$AAf?$AA?3?$AA?2?$AAd?$AAd?$AA?2?$AAv?$AAc?$AAt?$AAo?$AAo?$AAl?$AAs?$AA?2?$AAc?$AAr?$AAt?$AA?2?$AAc?$AAr?$AAt?$AAw?$AA3?$AA2?$AA?2?$AAs?$AAt?$AAa?$AAr?$AAt?$AAu?$AAp@ 000000014002d5a0     LIBCMTD:stdenvp.obj
 0002:000025f8       ??_C@_1BC@GHMCNHHL@?$AA_?$AAs?$AAe?$AAt?$AAe?$AAn?$AAv?$AAp?$AA?$AA@ 000000014002d5f8     LIBCMTD:stdenvp.obj
 0002:00002610       ??_C@_1DE@MMOGFGHF@?$AAs?$AAt?$AAr?$AAc?$AAp?$AAy?$AA_?$AAs?$AA?$CI?$AA?$CK?$AAe?$AAn?$AAv?$AA?0?$AA?5?$AAc?$AAc?$AAh?$AAa?$AAr?$AAs?$AA?0?$AA?5?$AAp?$AA?$CJ?$AA?$AA@ 000000014002d610     LIBCMTD:stdenvp.obj
 0002:000027c0       ??_C@_1FK@PGACCAFB@?$AAR?$AA6?$AA0?$AA0?$AA2?$AA?$AN?$AA?6?$AA?9?$AA?5?$AAf?$AAl?$AAo?$AAa?$AAt?$AAi?$AAn?$AAg?$AA?5?$AAp?$AAo?$AAi?$AAn?$AAt?$AA?5?$AAs?$AAu?$AAp?$AAp?$AAo?$AAr?$AAt?$AA?5@ 000000014002d7c0     LIBCMTD:crt0msg.obj
 0002:00002820       ??_C@_1FE@LLNEDJMD@?$AAR?$AA6?$AA0?$AA0?$AA8?$AA?$AN?$AA?6?$AA?9?$AA?5?$AAn?$AAo?$AAt?$AA?5?$AAe?$AAn?$AAo?$AAu?$AAg?$AAh?$AA?5?$AAs?$AAp?$AAa?$AAc?$AAe?$AA?5?$AAf?$AAo?$AAr?$AA?5?$AAa?$AAr@ 000000014002d820     LIBCMTD:crt0msg.obj
 0002:00002880       ??_C@_1FI@HONFMGBI@?$AAR?$AA6?$AA0?$AA0?$AA9?$AA?$AN?$AA?6?$AA?9?$AA?5?$AAn?$AAo?$AAt?$AA?5?$AAe?$AAn?$AAo?$AAu?$AAg?$AAh?$AA?5?$AAs?$AAp?$AAa?$AAc?$AAe?$AA?5?$AAf?$AAo?$AAr?$AA?5?$AAe?$AAn@ 000000014002d880     LIBCMTD:crt0msg.obj
 0002:000028e0       ??_C@_1EG@BEHAGFJD@?$AAR?$AA6?$AA0?$AA1?$AA0?$AA?$AN?$AA?6?$AA?9?$AA?5?$AAa?$AAb?$AAo?$AAr?$AAt?$AA?$CI?$AA?$CJ?$AA?5?$AAh?$AAa?$AAs?$AA?5?$AAb?$AAe?$AAe?$AAn?$AA?5?$AAc?$AAa?$AAl?$AAl?$AAe?$AAd@ 000000014002d8e0     LIBCMTD:crt0msg.obj
 0002:00002930       ??_C@_1FI@LOGNIKDM@?$AAR?$AA6?$AA0?$AA1?$AA6?$AA?$AN?$AA?6?$AA?9?$AA?5?$AAn?$AAo?$AAt?$AA?5?$AAe?$AAn?$AAo?$AAu?$AAg?$AAh?$AA?5?$AAs?$AAp?$AAa?$AAc?$AAe?$AA?5?$AAf?$AAo?$AAr?$AA?5?$AAt?$AAh@ 000000014002d930     LIBCMTD:crt0msg.obj
 0002:00002990       ??_C@_1FK@BEOGODMC@?$AAR?$AA6?$AA0?$AA1?$AA7?$AA?$AN?$AA?6?$AA?9?$AA?5?$AAu?$AAn?$AAe?$AAx?$AAp?$AAe?$AAc?$AAt?$AAe?$AAd?$AA?5?$AAm?$AAu?$AAl?$AAt?$AAi?$AAt?$AAh?$AAr?$AAe?$AAa?$AAd?$AA?5@ 000000014002d990     LIBCMTD:crt0msg.obj
 0002:000029f0       ??_C@_1EC@JIBHAOPH@?$AAR?$AA6?$AA0?$AA1?$AA8?$AA?$AN?$AA?6?$AA?9?$AA?5?$AAu?$AAn?$AAe?$AAx?$AAp?$AAe?$AAc?$AAt?$AAe?$AAd?$AA?5?$AAh?$AAe?$AAa?$AAp?$AA?5?$AAe?$AAr?$AAr?$AAo?$AAr?$AA?$AN?$AA?6@ 000000014002d9f0     LIBCMTD:crt0msg.obj
 0002:00002a40       ??_C@_1FC@ECHBIFBC@?$AAR?$AA6?$AA0?$AA1?$AA9?$AA?$AN?$AA?6?$AA?9?$AA?5?$AAu?$AAn?$AAa?$AAb?$AAl?$AAe?$AA?5?$AAt?$AAo?$AA?5?$AAo?$AAp?$AAe?$AAn?$AA?5?$AAc?$AAo?$AAn?$AAs?$AAo?$AAl?$AAe?$AA?5@ 000000014002da40     LIBCMTD:crt0msg.obj
 0002:00002aa0       ??_C@_1GK@FHCKBEFA@?$AAR?$AA6?$AA0?$AA2?$AA4?$AA?$AN?$AA?6?$AA?9?$AA?5?$AAn?$AAo?$AAt?$AA?5?$AAe?$AAn?$AAo?$AAu?$AAg?$AAh?$AA?5?$AAs?$AAp?$AAa?$AAc?$AAe?$AA?5?$AAf?$AAo?$AAr?$AA?5?$AA_?$AAo@ 000000014002daa0     LIBCMTD:crt0msg.obj
 0002:00002b10       ??_C@_1EM@MAADIHMB@?$AAR?$AA6?$AA0?$AA2?$AA5?$AA?$AN?$AA?6?$AA?9?$AA?5?$AAp?$AAu?$AAr?$AAe?$AA?5?$AAv?$AAi?$AAr?$AAt?$AAu?$AAa?$AAl?$AA?5?$AAf?$AAu?$AAn?$AAc?$AAt?$AAi?$AAo?$AAn?$AA?5?$AAc@ 000000014002db10     LIBCMTD:crt0msg.obj
 0002:00002b60       ??_C@_1GK@MCAAGJMO@?$AAR?$AA6?$AA0?$AA2?$AA6?$AA?$AN?$AA?6?$AA?9?$AA?5?$AAn?$AAo?$AAt?$AA?5?$AAe?$AAn?$AAo?$AAu?$AAg?$AAh?$AA?5?$AAs?$AAp?$AAa?$AAc?$AAe?$AA?5?$AAf?$AAo?$AAr?$AA?5?$AAs?$AAt@ 000000014002db60     LIBCMTD:crt0msg.obj
 0002:00002bd0       ??_C@_1GK@MFGOKLAG@?$AAR?$AA6?$AA0?$AA2?$AA7?$AA?$AN?$AA?6?$AA?9?$AA?5?$AAn?$AAo?$AAt?$AA?5?$AAe?$AAn?$AAo?$AAu?$AAg?$AAh?$AA?5?$AAs?$AAp?$AAa?$AAc?$AAe?$AA?5?$AAf?$AAo?$AAr?$AA?5?$AAl?$AAo@ 000000014002dbd0     LIBCMTD:crt0msg.obj
 0002:00002c40       ??_C@_1EK@HHFLMAOL@?$AAR?$AA6?$AA0?$AA2?$AA8?$AA?$AN?$AA?6?$AA?9?$AA?5?$AAu?$AAn?$AAa?$AAb?$AAl?$AAe?$AA?5?$AAt?$AAo?$AA?5?$AAi?$AAn?$AAi?$AAt?$AAi?$AAa?$AAl?$AAi?$AAz?$AAe?$AA?5?$AAh?$AAe@ 000000014002dc40     LIBCMTD:crt0msg.obj
 0002:00002c90       ??_C@_1DO@BMFCDCD@?$AAR?$AA6?$AA0?$AA3?$AA0?$AA?$AN?$AA?6?$AA?9?$AA?5?$AAC?$AAR?$AAT?$AA?5?$AAn?$AAo?$AAt?$AA?5?$AAi?$AAn?$AAi?$AAt?$AAi?$AAa?$AAl?$AAi?$AAz?$AAe?$AAd?$AA?$AN?$AA?6?$AA?$AA@ 000000014002dc90     LIBCMTD:crt0msg.obj
 0002:00002cd0       ??_C@_1MG@ENCOOIDF@?$AAR?$AA6?$AA0?$AA3?$AA1?$AA?$AN?$AA?6?$AA?9?$AA?5?$AAA?$AAt?$AAt?$AAe?$AAm?$AAp?$AAt?$AA?5?$AAt?$AAo?$AA?5?$AAi?$AAn?$AAi?$AAt?$AAi?$AAa?$AAl?$AAi?$AAz?$AAe?$AA?5?$AAt@ 000000014002dcd0     LIBCMTD:crt0msg.obj
 0002:00002da0       ??_C@_1GG@GOPILAJP@?$AAR?$AA6?$AA0?$AA3?$AA2?$AA?$AN?$AA?6?$AA?9?$AA?5?$AAn?$AAo?$AAt?$AA?5?$AAe?$AAn?$AAo?$AAu?$AAg?$AAh?$AA?5?$AAs?$AAp?$AAa?$AAc?$AAe?$AA?5?$AAf?$AAo?$AAr?$AA?5?$AAl?$AAo@ 000000014002dda0     LIBCMTD:crt0msg.obj
 0002:00002e10       ??_C@_1BOO@KGEDBGAJ@?$AAR?$AA6?$AA0?$AA3?$AA3?$AA?$AN?$AA?6?$AA?9?$AA?5?$AAA?$AAt?$AAt?$AAe?$AAm?$AAp?$AAt?$AA?5?$AAt?$AAo?$AA?5?$AAu?$AAs?$AAe?$AA?5?$AAM?$AAS?$AAI?$AAL?$AA?5?$AAc?$AAo?$AAd@ 000000014002de10     LIBCMTD:crt0msg.obj
 0002:00003000       ??_C@_1GG@MKFPEKFO@?$AAR?$AA6?$AA0?$AA3?$AA4?$AA?$AN?$AA?6?$AA?9?$AA?5?$AAi?$AAn?$AAc?$AAo?$AAn?$AAs?$AAi?$AAs?$AAt?$AAe?$AAn?$AAt?$AA?5?$AAo?$AAn?$AAe?$AAx?$AAi?$AAt?$AA?5?$AAb?$AAe?$AAg@ 000000014002e000     LIBCMTD:crt0msg.obj
 0002:00003068       ??_C@_1BO@BFCDCGC@?$AAD?$AAO?$AAM?$AAA?$AAI?$AAN?$AA?5?$AAe?$AAr?$AAr?$AAo?$AAr?$AA?$AN?$AA?6?$AA?$AA@ 000000014002e068     LIBCMTD:crt0msg.obj
 0002:00003088       ??_C@_1BK@KMOMNAAI@?$AAS?$AAI?$AAN?$AAG?$AA?5?$AAe?$AAr?$AAr?$AAo?$AAr?$AA?$AN?$AA?6?$AA?$AA@ 000000014002e088     LIBCMTD:crt0msg.obj
 0002:000030a8       ??_C@_1BM@JBBEPPHI@?$AAT?$AAL?$AAO?$AAS?$AAS?$AA?5?$AAe?$AAr?$AAr?$AAo?$AAr?$AA?$AN?$AA?6?$AA?$AA@ 000000014002e0a8     LIBCMTD:crt0msg.obj
 0002:000030c4       ??_C@_15JNBOKNOG@?$AA?$AN?$AA?6?$AA?$AA@ 000000014002e0c4     LIBCMTD:crt0msg.obj
 0002:000030d0       ??_C@_1BO@BKOMIGKJ@?$AAr?$AAu?$AAn?$AAt?$AAi?$AAm?$AAe?$AA?5?$AAe?$AAr?$AAr?$AAo?$AAr?$AA?5?$AA?$AA@ 000000014002e0d0     LIBCMTD:crt0msg.obj
 0002:000030f0       ??_C@_1FG@ILOHEEMG@?$AAf?$AA?3?$AA?2?$AAd?$AAd?$AA?2?$AAv?$AAc?$AAt?$AAo?$AAo?$AAl?$AAs?$AA?2?$AAc?$AAr?$AAt?$AA?2?$AAc?$AAr?$AAt?$AAw?$AA3?$AA2?$AA?2?$AAs?$AAt?$AAa?$AAr?$AAt?$AAu?$AAp@ 000000014002e0f0     LIBCMTD:crt0msg.obj
 0002:00003148       ??_C@_1BI@EAHMBMEC@?$AA_?$AAN?$AAM?$AAS?$AAG?$AA_?$AAW?$AAR?$AAI?$AAT?$AAE?$AA?$AA@ 000000014002e148     LIBCMTD:crt0msg.obj
 0002:00003160       ??_C@_1KO@BKLCKNFL@?$AAw?$AAc?$AAs?$AAc?$AAp?$AAy?$AA_?$AAs?$AA?$CI?$AAo?$AAu?$AAt?$AAm?$AAs?$AAg?$AA?0?$AA?5?$AA?$CI?$AAs?$AAi?$AAz?$AAe?$AAo?$AAf?$AA?$CI?$AAo?$AAu?$AAt?$AAm?$AAs?$AAg?$AA?$CJ@ 000000014002e160     LIBCMTD:crt0msg.obj
 0002:00003210       ??_C@_1DE@JNGNBFGO@?$AAR?$AAu?$AAn?$AAt?$AAi?$AAm?$AAe?$AA?5?$AAE?$AAr?$AAr?$AAo?$AAr?$AA?$CB?$AA?6?$AA?6?$AAP?$AAr?$AAo?$AAg?$AAr?$AAa?$AAm?$AA?3?$AA?5?$AA?$AA@ 000000014002e210     LIBCMTD:crt0msg.obj
 0002:00003250       ??_C@_1HK@FJJNAABO@?$AAw?$AAc?$AAs?$AAc?$AAp?$AAy?$AA_?$AAs?$AA?$CI?$AAp?$AAr?$AAo?$AAg?$AAn?$AAa?$AAm?$AAe?$AA?0?$AA?5?$AAp?$AAr?$AAo?$AAg?$AAn?$AAa?$AAm?$AAe?$AA_?$AAs?$AAi?$AAz?$AAe@ 000000014002e250     LIBCMTD:crt0msg.obj
 0002:000032d0       ??_C@_1HI@FLHKGEBE@?$AAw?$AAc?$AAs?$AAn?$AAc?$AAp?$AAy?$AA_?$AAs?$AA?$CI?$AAp?$AAc?$AAh?$AA?0?$AA?5?$AAp?$AAr?$AAo?$AAg?$AAn?$AAa?$AAm?$AAe?$AA_?$AAs?$AAi?$AAz?$AAe?$AA?5?$AA?9?$AA?5?$AA?$CI@ 000000014002e2d0     LIBCMTD:crt0msg.obj
 0002:00003350       ??_C@_1IA@DCJGKHFO@?$AAw?$AAc?$AAs?$AAc?$AAa?$AAt?$AA_?$AAs?$AA?$CI?$AAo?$AAu?$AAt?$AAm?$AAs?$AAg?$AA?0?$AA?5?$AA?$CI?$AAs?$AAi?$AAz?$AAe?$AAo?$AAf?$AA?$CI?$AAo?$AAu?$AAt?$AAm?$AAs?$AAg?$AA?$CJ@ 000000014002e350     LIBCMTD:crt0msg.obj
 0002:000033d0       ??_C@_1IG@NMONDPP@?$AAw?$AAc?$AAs?$AAc?$AAa?$AAt?$AA_?$AAs?$AA?$CI?$AAo?$AAu?$AAt?$AAm?$AAs?$AAg?$AA?0?$AA?5?$AA?$CI?$AAs?$AAi?$AAz?$AAe?$AAo?$AAf?$AA?$CI?$AAo?$AAu?$AAt?$AAm?$AAs?$AAg?$AA?$CJ@ 000000014002e3d0     LIBCMTD:crt0msg.obj
 0002:00003458       ??_C@_1DE@BCNCAIK@?$AA?$CI?$AA?$CC?$AAI?$AAn?$AAv?$AAa?$AAl?$AAi?$AAd?$AA?5?$AAe?$AAr?$AAr?$AAo?$AAr?$AA_?$AAm?$AAo?$AAd?$AAe?$AA?$CC?$AA?0?$AA?5?$AA0?$AA?$CJ?$AA?$AA@ 000000014002e458     LIBCMTD:errmode.obj
 0002:00003490       ??_C@_1FA@PBBGNIFD@?$AAf?$AA?3?$AA?2?$AAd?$AAd?$AA?2?$AAv?$AAc?$AAt?$AAo?$AAo?$AAl?$AAs?$AA?2?$AAc?$AAr?$AAt?$AA?2?$AAc?$AAr?$AAt?$AAw?$AA3?$AA2?$AA?2?$AAm?$AAi?$AAs?$AAc?$AA?2?$AAe?$AAr@ 000000014002e490     LIBCMTD:errmode.obj
 0002:000034e0       ??_C@_1CA@LFDHAMEM@?$AA_?$AAs?$AAe?$AAt?$AA_?$AAe?$AAr?$AAr?$AAo?$AAr?$AA_?$AAm?$AAo?$AAd?$AAe?$AA?$AA@ 000000014002e4e0     LIBCMTD:errmode.obj
 0002:00003500       ??_C@_0CG@NNNNMKLF@f?3?2dd?2vctools?2crt?2crtw32?2misc?2a_@ 000000014002e500     LIBCMTD:a_env.obj
 0002:00003528       ??_C@_1BK@MGMFAEKH@?$AAk?$AAe?$AAr?$AAn?$AAe?$AAl?$AA3?$AA2?$AA?4?$AAd?$AAl?$AAl?$AA?$AA@ 000000014002e528     LIBCMTD:winapisupp.obj
 0002:00003548       ??_C@_08KNHFBNJ@FlsAlloc?$AA@ 000000014002e548     LIBCMTD:winapisupp.obj
 0002:00003558       ??_C@_07PEJMOBNF@FlsFree?$AA@ 000000014002e558     LIBCMTD:winapisupp.obj
 0002:00003560       ??_C@_0M@GDNOONDI@FlsGetValue?$AA@ 000000014002e560     LIBCMTD:winapisupp.obj
 0002:00003570       ??_C@_0M@JCPCPOEF@FlsSetValue?$AA@ 000000014002e570     LIBCMTD:winapisupp.obj
 0002:00003580       ??_C@_0BM@HCFOFFN@InitializeCriticalSectionEx?$AA@ 000000014002e580     LIBCMTD:winapisupp.obj
 0002:000035a0       ??_C@_0P@DLHPPCNH@CreateEventExW?$AA@ 000000014002e5a0     LIBCMTD:winapisupp.obj
 0002:000035b0       ??_C@_0BD@KIEEOEEH@CreateSemaphoreExW?$AA@ 000000014002e5b0     LIBCMTD:winapisupp.obj
 0002:000035c8       ??_C@_0BI@BKLFFAPO@SetThreadStackGuarantee?$AA@ 000000014002e5c8     LIBCMTD:winapisupp.obj
 0002:000035e0       ??_C@_0BG@OGFAJCKC@CreateThreadpoolTimer?$AA@ 000000014002e5e0     LIBCMTD:winapisupp.obj
 0002:000035f8       ??_C@_0BD@LPLEMMDI@SetThreadpoolTimer?$AA@ 000000014002e5f8     LIBCMTD:winapisupp.obj
 0002:00003610       ??_C@_0CA@FMNJENH@WaitForThreadpoolTimerCallbacks?$AA@ 000000014002e610     LIBCMTD:winapisupp.obj
 0002:00003630       ??_C@_0BF@DCFCCNOC@CloseThreadpoolTimer?$AA@ 000000014002e630     LIBCMTD:winapisupp.obj
 0002:00003648       ??_C@_0BF@FLABGKKM@CreateThreadpoolWait?$AA@ 000000014002e648     LIBCMTD:winapisupp.obj
 0002:00003660       ??_C@_0BC@MGCOHNA@SetThreadpoolWait?$AA@ 000000014002e660     LIBCMTD:winapisupp.obj
 0002:00003678       ??_C@_0BE@OCIOMIMP@CloseThreadpoolWait?$AA@ 000000014002e678     LIBCMTD:winapisupp.obj
 0002:00003690       ??_C@_0BJ@LKGHFHBO@FlushProcessWriteBuffers?$AA@ 000000014002e690     LIBCMTD:winapisupp.obj
 0002:000036b0       ??_C@_0BP@KALKKPMO@FreeLibraryWhenCallbackReturns?$AA@ 000000014002e6b0     LIBCMTD:winapisupp.obj
 0002:000036d0       ??_C@_0BK@DFNBACLA@GetCurrentProcessorNumber?$AA@ 000000014002e6d0     LIBCMTD:winapisupp.obj
 0002:000036f0       ??_C@_0BP@KHGALBC@GetLogicalProcessorInformation?$AA@ 000000014002e6f0     LIBCMTD:winapisupp.obj
 0002:00003710       ??_C@_0BE@FKKLLFLM@CreateSymbolicLinkW?$AA@ 000000014002e710     LIBCMTD:winapisupp.obj
 0002:00003728       ??_C@_0BJ@OHNKDLIJ@SetDefaultDllDirectories?$AA@ 000000014002e728     LIBCMTD:winapisupp.obj
 0002:00003748       ??_C@_0BE@LJANKFHF@EnumSystemLocalesEx?$AA@ 000000014002e748     LIBCMTD:winapisupp.obj
 0002:00003760       ??_C@_0BA@IHGNDAEB@CompareStringEx?$AA@ 000000014002e760     LIBCMTD:winapisupp.obj
 0002:00003770       ??_C@_0BA@EPCJIIPD@GetDateFormatEx?$AA@ 000000014002e770     LIBCMTD:winapisupp.obj
 0002:00003780       ??_C@_0BA@ONOKGCMP@GetLocaleInfoEx?$AA@ 000000014002e780     LIBCMTD:winapisupp.obj
 0002:00003790       ??_C@_0BA@CIJJKCJJ@GetTimeFormatEx?$AA@ 000000014002e790     LIBCMTD:winapisupp.obj
 0002:000037a0       ??_C@_0BJ@PBCCBIPI@GetUserDefaultLocaleName?$AA@ 000000014002e7a0     LIBCMTD:winapisupp.obj
 0002:000037c0       ??_C@_0BC@CELBKLLA@IsValidLocaleName?$AA@ 000000014002e7c0     LIBCMTD:winapisupp.obj
 0002:000037d8       ??_C@_0O@KKBNKAPF@LCMapStringEx?$AA@ 000000014002e7d8     LIBCMTD:winapisupp.obj
 0002:000037e8       ??_C@_0BE@JOGNEJCI@GetCurrentPackageId?$AA@ 000000014002e7e8     LIBCMTD:winapisupp.obj
 0002:00003800       ??_C@_0P@CDHHOHKP@GetTickCount64?$AA@ 000000014002e800     LIBCMTD:winapisupp.obj
 0002:00003810       ??_C@_0BO@KPCLFDJJ@GetFileInformationByHandleExW?$AA@ 000000014002e810     LIBCMTD:winapisupp.obj
 0002:00003830       ??_C@_0BM@MHIDLABK@SetFileInformationByHandleW?$AA@ 000000014002e830     LIBCMTD:winapisupp.obj
 0002:0000384c       ??_C@_00CNPNBAHC@?$AA@     000000014002e84c     LIBCMTD:wincmdln.obj
 0002:00003850       ??_C@_0CH@FPHLCLAF@f?3?2dd?2vctools?2crt?2crtw32?2stdio?2_@ 000000014002e850     LIBCMTD:_file.obj
 0002:00003880       ??_C@_1FA@CKEACION@?$AAf?$AA?3?$AA?2?$AAd?$AAd?$AA?2?$AAv?$AAc?$AAt?$AAo?$AAo?$AAl?$AAs?$AA?2?$AAc?$AAr?$AAt?$AA?2?$AAc?$AAr?$AAt?$AAw?$AA3?$AA2?$AA?2?$AAs?$AAt?$AAd?$AAi?$AAo?$AA?2?$AAf@ 000000014002e880     LIBCMTD:fileno.obj
 0002:000038d0       ??_C@_1BA@JGHIEKKM@?$AA_?$AAf?$AAi?$AAl?$AAe?$AAn?$AAo?$AA?$AA@ 000000014002e8d0     LIBCMTD:fileno.obj
 0002:000038e0       ??_C@_1FO@LPCLHKGE@?$AA?$CI?$AAf?$AAh?$AA?5?$AA?$DO?$AA?$DN?$AA?5?$AA0?$AA?5?$AA?$CG?$AA?$CG?$AA?5?$AA?$CI?$AAu?$AAn?$AAs?$AAi?$AAg?$AAn?$AAe?$AAd?$AA?$CJ?$AAf?$AAh?$AA?5?$AA?$DM?$AA?5?$AA?$CI?$AAu?$AAn?$AAs?$AAi@ 000000014002e8e0     LIBCMTD:isatty.obj
 0002:00003940       ??_C@_1FA@NFCHPDNG@?$AAf?$AA?3?$AA?2?$AAd?$AAd?$AA?2?$AAv?$AAc?$AAt?$AAo?$AAo?$AAl?$AAs?$AA?2?$AAc?$AAr?$AAt?$AA?2?$AAc?$AAr?$AAt?$AAw?$AA3?$AA2?$AA?2?$AAl?$AAo?$AAw?$AAi?$AAo?$AA?2?$AAi@ 000000014002e940     LIBCMTD:isatty.obj
 0002:00003990       ??_C@_1BA@LEBDGIHM@?$AA_?$AAi?$AAs?$AAa?$AAt?$AAt?$AAy?$AA?$AA@ 000000014002e990     LIBCMTD:isatty.obj
 0002:000039a0       ??_C@_1EO@NLGPLDCN@?$AAf?$AA?3?$AA?2?$AAd?$AAd?$AA?2?$AAv?$AAc?$AAt?$AAo?$AAo?$AAl?$AAs?$AA?2?$AAc?$AAr?$AAt?$AA?2?$AAc?$AAr?$AAt?$AAw?$AA3?$AA2?$AA?2?$AAl?$AAo?$AAw?$AAi?$AAo?$AA?2?$AAw@ 000000014002e9a0     LIBCMTD:write.obj
 0002:000039f0       ??_C@_1O@KOFKDHPL@?$AA_?$AAw?$AAr?$AAi?$AAt?$AAe?$AA?$AA@ 000000014002e9f0     LIBCMTD:write.obj
 0002:00003a00       ??_C@_1CM@OKGMMMDH@?$AA?$CI?$AA_?$AAo?$AAs?$AAf?$AAi?$AAl?$AAe?$AA?$CI?$AAf?$AAh?$AA?$CJ?$AA?5?$AA?$CG?$AA?5?$AAF?$AAO?$AAP?$AAE?$AAN?$AA?$CJ?$AA?$AA@ 000000014002ea00     LIBCMTD:write.obj
 0002:00003a30       ??_C@_1JE@ECKHFIFP@?$AA?$CI?$AA?$CC?$AAI?$AAn?$AAv?$AAa?$AAl?$AAi?$AAd?$AA?5?$AAf?$AAi?$AAl?$AAe?$AA?5?$AAd?$AAe?$AAs?$AAc?$AAr?$AAi?$AAp?$AAt?$AAo?$AAr?$AA?4?$AA?5?$AAF?$AAi?$AAl?$AAe?$AA?5@ 000000014002ea30     LIBCMTD:write.obj
 0002:00003ac8       ??_C@_1BM@KFJLMBPG@?$AA?$CI?$AAb?$AAu?$AAf?$AA?5?$AA?$CB?$AA?$DN?$AA?5?$AAN?$AAU?$AAL?$AAL?$AA?$CJ?$AA?$AA@ 000000014002eac8     LIBCMTD:write.obj
 0002:00003ae8       ??_C@_1BM@NCANHCIP@?$AA_?$AAw?$AAr?$AAi?$AAt?$AAe?$AA_?$AAn?$AAo?$AAl?$AAo?$AAc?$AAk?$AA?$AA@ 000000014002eae8     LIBCMTD:write.obj
 0002:00003b08       ??_C@_1CC@EEOLPHGO@?$AA?$CI?$AA?$CI?$AAc?$AAn?$AAt?$AA?5?$AA?$CG?$AA?5?$AA1?$AA?$CJ?$AA?5?$AA?$DN?$AA?$DN?$AA?5?$AA0?$AA?$CJ?$AA?$AA@ 000000014002eb08     LIBCMTD:write.obj
 0002:00003b30       ??_C@_1DI@CNMHHHLG@?$AAi?$AAs?$AAl?$AAe?$AAa?$AAd?$AAb?$AAy?$AAt?$AAe?$AA?$CI?$AA_?$AAd?$AAb?$AAc?$AAs?$AAB?$AAu?$AAf?$AAf?$AAe?$AAr?$AA?$CI?$AAf?$AAh?$AA?$CJ?$AA?$CJ?$AA?$AA@ 000000014002eb30     LIBCMTD:write.obj
 0002:00003b70       ??_C@_1FE@NDDOFCDF@?$AAf?$AA?3?$AA?2?$AAd?$AAd?$AA?2?$AAv?$AAc?$AAt?$AAo?$AAo?$AAl?$AAs?$AA?2?$AAc?$AAr?$AAt?$AA?2?$AAc?$AAr?$AAt?$AAw?$AA3?$AA2?$AA?2?$AAl?$AAo?$AAw?$AAi?$AAo?$AA?2?$AAl@ 000000014002eb70     LIBCMTD:lseeki64.obj
 0002:00003bc8       ??_C@_1BE@KHFBJMNM@?$AA_?$AAl?$AAs?$AAe?$AAe?$AAk?$AAi?$AA6?$AA4?$AA?$AA@ 000000014002ebc8     LIBCMTD:lseeki64.obj
 0002:00003be0       ??_C@_1FC@LGKDBMCL@?$AAf?$AA?3?$AA?2?$AAd?$AAd?$AA?2?$AAv?$AAc?$AAt?$AAo?$AAo?$AAl?$AAs?$AA?2?$AAc?$AAr?$AAt?$AA?2?$AAc?$AAr?$AAt?$AAw?$AA3?$AA2?$AA?2?$AAs?$AAt?$AAd?$AAi?$AAo?$AA?2?$AA_@ 000000014002ebe0     LIBCMTD:_getbuf.obj
 0002:00003c38       ??_C@_0CJ@NMDFOMAF@f?3?2dd?2vctools?2crt?2crtw32?2stdio?2_@ 000000014002ec38     LIBCMTD:_getbuf.obj
 0002:00003c68       ??_C@_1BI@GKKCBDMD@?$AAd?$AAs?$AAt?$AA?5?$AA?$CB?$AA?$DN?$AA?5?$AAN?$AAU?$AAL?$AAL?$AA?$AA@ 000000014002ec68     LIBCMTD:memcpy_s.obj
 0002:00003c80       ??_C@_1FG@COJCEIPE@?$AAf?$AA?3?$AA?2?$AAd?$AAd?$AA?2?$AAv?$AAc?$AAt?$AAo?$AAo?$AAl?$AAs?$AA?2?$AAc?$AAr?$AAt?$AA?2?$AAc?$AAr?$AAt?$AAw?$AA3?$AA2?$AA?2?$AAs?$AAt?$AAr?$AAi?$AAn?$AAg?$AA?2@ 000000014002ec80     LIBCMTD:memcpy_s.obj
 0002:00003cd8       ??_C@_1BC@GKHDJMGB@?$AAm?$AAe?$AAm?$AAc?$AAp?$AAy?$AA_?$AAs?$AA?$AA@ 000000014002ecd8     LIBCMTD:memcpy_s.obj
 0002:00003cf0       ??_C@_1BI@DCHLDCPP@?$AAs?$AAr?$AAc?$AA?5?$AA?$CB?$AA?$DN?$AA?5?$AAN?$AAU?$AAL?$AAL?$AA?$AA@ 000000014002ecf0     LIBCMTD:memcpy_s.obj
 0002:00003d08       ??_C@_1CK@DDKKOLAN@?$AAs?$AAi?$AAz?$AAe?$AAI?$AAn?$AAB?$AAy?$AAt?$AAe?$AAs?$AA?5?$AA?$DO?$AA?$DN?$AA?5?$AAc?$AAo?$AAu?$AAn?$AAt?$AA?$AA@ 000000014002ed08     LIBCMTD:memcpy_s.obj
 0002:00003d40       ??_C@_1FC@PFMLEHKI@?$AA?$CI?$AA?$CI?$AA_?$AAD?$AAs?$AAt?$AA?$CJ?$AA?$CJ?$AA?5?$AA?$CB?$AA?$DN?$AA?5?$AAN?$AAU?$AAL?$AAL?$AA?5?$AA?$CG?$AA?$CG?$AA?5?$AA?$CI?$AA?$CI?$AA_?$AAS?$AAi?$AAz?$AAe?$AAI?$AAn?$AAW?$AAo?$AAr@ 000000014002ed40     LIBCMTD:wcscpy_s.obj
 0002:00003da0       ??_C@_1FA@ILDLFIFE@?$AAf?$AA?3?$AA?2?$AAd?$AAd?$AA?2?$AAv?$AAc?$AAt?$AAo?$AAo?$AAl?$AAs?$AA?2?$AAc?$AAr?$AAt?$AA?2?$AAc?$AAr?$AAt?$AAw?$AA3?$AA2?$AA?2?$AAh?$AA?2?$AAt?$AAc?$AAs?$AAc?$AAp@ 000000014002eda0     LIBCMTD:wcscpy_s.obj
 0002:00003df0       ??_C@_1BC@KIONAFPO@?$AAw?$AAc?$AAs?$AAc?$AAp?$AAy?$AA_?$AAs?$AA?$AA@ 000000014002edf0     LIBCMTD:wcscpy_s.obj
 0002:00003e08       ??_C@_1CG@OFBJMIGJ@?$AA?$CI?$AA?$CI?$AA?$CI?$AA_?$AAS?$AAr?$AAc?$AA?$CJ?$AA?$CJ?$AA?$CJ?$AA?5?$AA?$CB?$AA?$DN?$AA?5?$AAN?$AAU?$AAL?$AAL?$AA?$AA@ 000000014002ee08     LIBCMTD:wcscpy_s.obj
 0002:00003e30       ??_C@_1CI@HCPHDDLE@?$AAB?$AAu?$AAf?$AAf?$AAe?$AAr?$AA?5?$AAi?$AAs?$AA?5?$AAt?$AAo?$AAo?$AA?5?$AAs?$AAm?$AAa?$AAl?$AAl?$AA?$AA@ 000000014002ee30     LIBCMTD:wcscpy_s.obj
 0002:00003e58       ??_C@_1DM@MADKGDLO@?$AA?$CI?$AAL?$AA?$CC?$AAB?$AAu?$AAf?$AAf?$AAe?$AAr?$AA?5?$AAi?$AAs?$AA?5?$AAt?$AAo?$AAo?$AA?5?$AAs?$AAm?$AAa?$AAl?$AAl?$AA?$CC?$AA?5?$AA?$CG?$AA?$CG?$AA?5?$AA0?$AA?$CJ?$AA?$AA@ 000000014002ee58     LIBCMTD:wcscpy_s.obj
 0002:00003e98       ??_C@_0CJ@LPLBAFNO@f?3?2dd?2vctools?2crt?2crtw32?2startup@ 000000014002ee98     LIBCMTD:mlock.obj
 0002:00003ec8       ??_C@_1DO@MLNEDKGB@?$AA?$CI?$AA?$CC?$AAI?$AAn?$AAv?$AAa?$AAl?$AAi?$AAd?$AA?5?$AAs?$AAi?$AAg?$AAn?$AAa?$AAl?$AA?5?$AAo?$AAr?$AA?5?$AAe?$AAr?$AAr?$AAo?$AAr?$AA?$CC?$AA?0?$AA?5?$AA0?$AA?$CJ?$AA?$AA@ 000000014002eec8     LIBCMTD:winsig.obj
 0002:00003f10       ??_C@_1EO@BCKLPCCI@?$AAf?$AA?3?$AA?2?$AAd?$AAd?$AA?2?$AAv?$AAc?$AAt?$AAo?$AAo?$AAl?$AAs?$AA?2?$AAc?$AAr?$AAt?$AA?2?$AAc?$AAr?$AAt?$AAw?$AA3?$AA2?$AA?2?$AAm?$AAi?$AAs?$AAc?$AA?2?$AAw?$AAi@ 000000014002ef10     LIBCMTD:winsig.obj
 0002:00003f60       ??_C@_1M@DMJEIKHL@?$AAr?$AAa?$AAi?$AAs?$AAe?$AA?$AA@ 000000014002ef60     LIBCMTD:winsig.obj
 0002:00003f70       ??_C@_1BG@GOEBHBDC@?$AAU?$AAS?$AAE?$AAR?$AA3?$AA2?$AA?4?$AAD?$AAL?$AAL?$AA?$AA@ 000000014002ef70     LIBCMTD:crtmboxw.obj
 0002:00003f88       ??_C@_0M@DLDCCGNP@MessageBoxW?$AA@ 000000014002ef88     LIBCMTD:crtmboxw.obj
 0002:00003f98       ??_C@_0BA@HNOPNCHB@GetActiveWindow?$AA@ 000000014002ef98     LIBCMTD:crtmboxw.obj
 0002:00003fa8       ??_C@_0BD@HHGDFDBJ@GetLastActivePopup?$AA@ 000000014002efa8     LIBCMTD:crtmboxw.obj
 0002:00003fc0       ??_C@_0BK@DEKFELLI@GetUserObjectInformationW?$AA@ 000000014002efc0     LIBCMTD:crtmboxw.obj
 0002:00003fe0       ??_C@_0BI@DFKBFLJE@GetProcessWindowStation?$AA@ 000000014002efe0     LIBCMTD:crtmboxw.obj
 0002:00004000       ??_C@_1FA@PPLJBGMP@?$AAf?$AA?3?$AA?2?$AAd?$AAd?$AA?2?$AAv?$AAc?$AAt?$AAo?$AAo?$AAl?$AAs?$AA?2?$AAc?$AAr?$AAt?$AA?2?$AAc?$AAr?$AAt?$AAw?$AA3?$AA2?$AA?2?$AAm?$AAi?$AAs?$AAc?$AA?2?$AAd?$AAb@ 000000014002f000     LIBCMTD:dbgrptt.obj
 0002:00004050       ??_C@_1CA@KHJHLKA@?$AA_?$AAV?$AAC?$AAr?$AAt?$AAD?$AAb?$AAg?$AAR?$AAe?$AAp?$AAo?$AAr?$AAt?$AAA?$AA?$AA@ 000000014002f050     LIBCMTD:dbgrptt.obj
 0002:00004070       ??_C@_1FA@JPHJBHEM@?$AA_?$AAi?$AAt?$AAo?$AAa?$AA_?$AAs?$AA?$CI?$AAn?$AAL?$AAi?$AAn?$AAe?$AA?0?$AA?5?$AAs?$AAz?$AAL?$AAi?$AAn?$AAe?$AAM?$AAe?$AAs?$AAs?$AAa?$AAg?$AAe?$AA?0?$AA?5?$AA4?$AA0@ 000000014002f070     LIBCMTD:dbgrptt.obj
 0002:000040c0       ??_C@_0CG@BNGLOCEO@Second?5Chance?5Assertion?5Failed?3?5@ 000000014002f0c0     LIBCMTD:dbgrptt.obj
 0002:000040e8       ??_C@_0P@DFJNDPOP@?$DMfile?5unknown?$DO?$AA@ 000000014002f0e8     LIBCMTD:dbgrptt.obj
 0002:000040f8       ??_C@_07BHGABMGB@?0?5Line?5?$AA@ 000000014002f0f8     LIBCMTD:dbgrptt.obj
 0002:00004100       ??_C@_01EEMJAFIK@?6?$AA@   000000014002f100     LIBCMTD:dbgrptt.obj
 0002:00004110       ??_C@_1JI@GAALPGBM@?$AAs?$AAt?$AAr?$AAc?$AAp?$AAy?$AA_?$AAs?$AA?$CI?$AAs?$AAz?$AAU?$AAs?$AAe?$AAr?$AAM?$AAe?$AAs?$AAs?$AAa?$AAg?$AAe?$AA?0?$AA?5?$AA4?$AA0?$AA9?$AA6?$AA?0?$AA?5?$AA?$CC?$AA_@ 000000014002f110     LIBCMTD:dbgrptt.obj
 0002:000041a8       ??_C@_0CL@EACFGMNB@_CrtDbgReport?3?5String?5too?5long?5o@ 000000014002f1a8     LIBCMTD:dbgrptt.obj
 0002:000041e0       ??_C@_1KK@GIGAEDMO@?$AAs?$AAt?$AAr?$AAc?$AAp?$AAy?$AA_?$AAs?$AA?$CI?$AAs?$AAz?$AAL?$AAi?$AAn?$AAe?$AAM?$AAe?$AAs?$AAs?$AAa?$AAg?$AAe?$AA?0?$AA?5?$AA4?$AA0?$AA9?$AA6?$AA?0?$AA?5?$AAs?$AAz@ 000000014002f1e0     LIBCMTD:dbgrptt.obj
 0002:00004290       ??_C@_0BD@CAENFOHP@Assertion?5failed?3?5?$AA@ 000000014002f290     LIBCMTD:dbgrptt.obj
 0002:000042a8       ??_C@_0BC@LAIDCHCH@Assertion?5failed?$CB?$AA@ 000000014002f2a8     LIBCMTD:dbgrptt.obj
 0002:000042c0       ??_C@_1FK@NPGBPOFO@?$AAs?$AAt?$AAr?$AAc?$AAa?$AAt?$AA_?$AAs?$AA?$CI?$AAs?$AAz?$AAL?$AAi?$AAn?$AAe?$AAM?$AAe?$AAs?$AAs?$AAa?$AAg?$AAe?$AA?0?$AA?5?$AA4?$AA0?$AA9?$AA6?$AA?0?$AA?5?$AAs?$AAz@ 000000014002f2c0     LIBCMTD:dbgrptt.obj
 0002:00004320       ??_C@_1EI@CACDLAFK@?$AAs?$AAt?$AAr?$AAc?$AAa?$AAt?$AA_?$AAs?$AA?$CI?$AAs?$AAz?$AAL?$AAi?$AAn?$AAe?$AAM?$AAe?$AAs?$AAs?$AAa?$AAg?$AAe?$AA?0?$AA?5?$AA4?$AA0?$AA9?$AA6?$AA?0?$AA?5?$AA?$CC?$AA?2@ 000000014002f320     LIBCMTD:dbgrptt.obj
 0002:00004368       ??_C@_01LIIJDEN@?$AN?$AA@  000000014002f368     LIBCMTD:dbgrptt.obj
 0002:00004370       ??_C@_1EI@LDHJEDO@?$AAs?$AAt?$AAr?$AAc?$AAa?$AAt?$AA_?$AAs?$AA?$CI?$AAs?$AAz?$AAL?$AAi?$AAn?$AAe?$AAM?$AAe?$AAs?$AAs?$AAa?$AAg?$AAe?$AA?0?$AA?5?$AA4?$AA0?$AA9?$AA6?$AA?0?$AA?5?$AA?$CC?$AA?2@ 000000014002f370     LIBCMTD:dbgrptt.obj
 0002:000043b8       ??_C@_0M@IPILFDFN@?$CFs?$CI?$CFd?$CJ?5?3?5?$CFs?$AA@ 000000014002f3b8     LIBCMTD:dbgrptt.obj
 0002:000043d0       ??_C@_1JG@CPKCIOEE@?$AAs?$AAt?$AAr?$AAc?$AAp?$AAy?$AA_?$AAs?$AA?$CI?$AAs?$AAz?$AAO?$AAu?$AAt?$AAM?$AAe?$AAs?$AAs?$AAa?$AAg?$AAe?$AA?0?$AA?5?$AA4?$AA0?$AA9?$AA6?$AA?0?$AA?5?$AA?$CC?$AA_?$AAC@ 000000014002f3d0     LIBCMTD:dbgrptt.obj
 0002:00004470       ??_C@_1FI@IBIOIHEG@?$AAs?$AAt?$AAr?$AAc?$AAp?$AAy?$AA_?$AAs?$AA?$CI?$AAs?$AAz?$AAO?$AAu?$AAt?$AAM?$AAe?$AAs?$AAs?$AAa?$AAg?$AAe?$AA?0?$AA?5?$AA4?$AA0?$AA9?$AA6?$AA?0?$AA?5?$AAs?$AAz?$AAL@ 000000014002f470     LIBCMTD:dbgrptt.obj
 0002:000044d0       ??_C@_1IM@OOKIFKOH@?$AAe?$AA?5?$AA?$DN?$AA?5?$AAm?$AAb?$AAs?$AAt?$AAo?$AAw?$AAc?$AAs?$AA_?$AAs?$AA?$CI?$AA?$CG?$AAr?$AAe?$AAt?$AA?0?$AA?5?$AAs?$AAz?$AAO?$AAu?$AAt?$AAM?$AAe?$AAs?$AAs?$AAa?$AAg@ 000000014002f4d0     LIBCMTD:dbgrptt.obj
 0002:00004560       ??_C@_1MC@IGEECMDB@?$AAw?$AAc?$AAs?$AAc?$AAp?$AAy?$AA_?$AAs?$AA?$CI?$AAs?$AAz?$AAO?$AAu?$AAt?$AAM?$AAe?$AAs?$AAs?$AAa?$AAg?$AAe?$AA2?$AA?0?$AA?5?$AA4?$AA0?$AA9?$AA6?$AA?0?$AA?5?$AAL?$AA?$CC@ 000000014002f560     LIBCMTD:dbgrptt.obj
 0002:00004630       ??_C@_1HO@PJOFIKFE@?$AA_?$AAC?$AAr?$AAt?$AAD?$AAb?$AAg?$AAR?$AAe?$AAp?$AAo?$AAr?$AAt?$AA?3?$AA?5?$AAS?$AAt?$AAr?$AAi?$AAn?$AAg?$AA?5?$AAt?$AAo?$AAo?$AA?5?$AAl?$AAo?$AAn?$AAg?$AA?5?$AAo@ 000000014002f630     LIBCMTD:dbgrptt.obj
 0002:000046b0       ??_C@_1CA@HPALHDOD@?$AA_?$AAV?$AAC?$AAr?$AAt?$AAD?$AAb?$AAg?$AAR?$AAe?$AAp?$AAo?$AAr?$AAt?$AAW?$AA?$AA@ 000000014002f6b0     LIBCMTD:dbgrptt.obj
 0002:000046d0       ??_C@_1FA@CNLLOMHI@?$AA_?$AAi?$AAt?$AAo?$AAw?$AA_?$AAs?$AA?$CI?$AAn?$AAL?$AAi?$AAn?$AAe?$AA?0?$AA?5?$AAs?$AAz?$AAL?$AAi?$AAn?$AAe?$AAM?$AAe?$AAs?$AAs?$AAa?$AAg?$AAe?$AA?0?$AA?5?$AA4?$AA0@ 000000014002f6d0     LIBCMTD:dbgrptt.obj
 0002:00004720       ??_C@_1EM@MJFLEDMB@?$AAS?$AAe?$AAc?$AAo?$AAn?$AAd?$AA?5?$AAC?$AAh?$AAa?$AAn?$AAc?$AAe?$AA?5?$AAA?$AAs?$AAs?$AAe?$AAr?$AAt?$AAi?$AAo?$AAn?$AA?5?$AAF?$AAa?$AAi?$AAl?$AAe?$AAd?$AA?3?$AA?5@ 000000014002f720     LIBCMTD:dbgrptt.obj
 0002:00004770       ??_C@_1BO@OCHMLCAG@?$AA?$DM?$AAf?$AAi?$AAl?$AAe?$AA?5?$AAu?$AAn?$AAk?$AAn?$AAo?$AAw?$AAn?$AA?$DO?$AA?$AA@ 000000014002f770     LIBCMTD:dbgrptt.obj
 0002:00004790       ??_C@_1BA@ELMMDCFC@?$AA?0?$AA?5?$AAL?$AAi?$AAn?$AAe?$AA?5?$AA?$AA@ 000000014002f790     LIBCMTD:dbgrptt.obj
 0002:000047a0       ??_C@_13LBAGMAIH@?$AA?6?$AA?$AA@ 000000014002f7a0     LIBCMTD:dbgrptt.obj
 0002:000047b0       ??_C@_1JK@KHFABAEO@?$AAw?$AAc?$AAs?$AAc?$AAp?$AAy?$AA_?$AAs?$AA?$CI?$AAs?$AAz?$AAU?$AAs?$AAe?$AAr?$AAM?$AAe?$AAs?$AAs?$AAa?$AAg?$AAe?$AA?0?$AA?5?$AA4?$AA0?$AA9?$AA6?$AA?0?$AA?5?$AAL?$AA?$CC@ 000000014002f7b0     LIBCMTD:dbgrptt.obj
 0002:00004850       ??_C@_1KO@DGAHENCH@?$AAw?$AAc?$AAs?$AAc?$AAp?$AAy?$AA_?$AAs?$AA?$CI?$AAs?$AAz?$AAL?$AAi?$AAn?$AAe?$AAM?$AAe?$AAs?$AAs?$AAa?$AAg?$AAe?$AA?0?$AA?5?$AA4?$AA0?$AA9?$AA6?$AA?0?$AA?5?$AAs?$AAz@ 000000014002f850     LIBCMTD:dbgrptt.obj
 0002:00004900       ??_C@_1CG@FFFGGODN@?$AAA?$AAs?$AAs?$AAe?$AAr?$AAt?$AAi?$AAo?$AAn?$AA?5?$AAf?$AAa?$AAi?$AAl?$AAe?$AAd?$AA?3?$AA?5?$AA?$AA@ 000000014002f900     LIBCMTD:dbgrptt.obj
 0002:00004928       ??_C@_1CE@OJBNHDMO@?$AAA?$AAs?$AAs?$AAe?$AAr?$AAt?$AAi?$AAo?$AAn?$AA?5?$AAf?$AAa?$AAi?$AAl?$AAe?$AAd?$AA?$CB?$AA?$AA@ 000000014002f928     LIBCMTD:dbgrptt.obj
 0002:00004950       ??_C@_1FK@HPADHBBD@?$AAw?$AAc?$AAs?$AAc?$AAa?$AAt?$AA_?$AAs?$AA?$CI?$AAs?$AAz?$AAL?$AAi?$AAn?$AAe?$AAM?$AAe?$AAs?$AAs?$AAa?$AAg?$AAe?$AA?0?$AA?5?$AA4?$AA0?$AA9?$AA6?$AA?0?$AA?5?$AAs?$AAz@ 000000014002f950     LIBCMTD:dbgrptt.obj
 0002:000049b0       ??_C@_1EK@NMDFGHMF@?$AAw?$AAc?$AAs?$AAc?$AAa?$AAt?$AA_?$AAs?$AA?$CI?$AAs?$AAz?$AAL?$AAi?$AAn?$AAe?$AAM?$AAe?$AAs?$AAs?$AAa?$AAg?$AAe?$AA?0?$AA?5?$AA4?$AA0?$AA9?$AA6?$AA?0?$AA?5?$AAL?$AA?$CC@ 000000014002f9b0     LIBCMTD:dbgrptt.obj
 0002:000049fc       ??_C@_13CMNBPIDO@?$AA?$AN?$AA?$AA@ 000000014002f9fc     LIBCMTD:dbgrptt.obj
 0002:00004a00       ??_C@_1EK@PHCBEDKB@?$AAw?$AAc?$AAs?$AAc?$AAa?$AAt?$AA_?$AAs?$AA?$CI?$AAs?$AAz?$AAL?$AAi?$AAn?$AAe?$AAM?$AAe?$AAs?$AAs?$AAa?$AAg?$AAe?$AA?0?$AA?5?$AA4?$AA0?$AA9?$AA6?$AA?0?$AA?5?$AAL?$AA?$CC@ 000000014002fa00     LIBCMTD:dbgrptt.obj
 0002:00004a50       ??_C@_1BI@JIDBEPIG@?$AA?$CF?$AAs?$AA?$CI?$AA?$CF?$AAd?$AA?$CJ?$AA?5?$AA?3?$AA?5?$AA?$CF?$AAs?$AA?$AA@ 000000014002fa50     LIBCMTD:dbgrptt.obj
 0002:00004a70       ??_C@_1FI@DBAIJPJE@?$AAw?$AAc?$AAs?$AAc?$AAp?$AAy?$AA_?$AAs?$AA?$CI?$AAs?$AAz?$AAO?$AAu?$AAt?$AAM?$AAe?$AAs?$AAs?$AAa?$AAg?$AAe?$AA?0?$AA?5?$AA4?$AA0?$AA9?$AA6?$AA?0?$AA?5?$AAs?$AAz?$AAL@ 000000014002fa70     LIBCMTD:dbgrptt.obj
 0002:00004ad0       ??_C@_1JC@EOAPFDLN@?$AAw?$AAc?$AAs?$AAt?$AAo?$AAm?$AAb?$AAs?$AA_?$AAs?$AA?$CI?$AA?$CI?$AA?$CI?$AAv?$AAo?$AAi?$AAd?$AA?5?$AA?$CK?$AA?$CJ?$AA0?$AA?$CJ?$AA?0?$AA?5?$AAs?$AAz?$AAO?$AAu?$AAt?$AAM?$AAe?$AAs@ 000000014002fad0     LIBCMTD:dbgrptt.obj
 0002:00004b70       ??_C@_1MA@LBAMNNOB@?$AAs?$AAt?$AAr?$AAc?$AAp?$AAy?$AA_?$AAs?$AA?$CI?$AAs?$AAz?$AAO?$AAu?$AAt?$AAM?$AAe?$AAs?$AAs?$AAa?$AAg?$AAe?$AA2?$AA?0?$AA?5?$AA4?$AA0?$AA9?$AA6?$AA?0?$AA?5?$AA?$CC?$AA_@ 000000014002fb70     LIBCMTD:dbgrptt.obj
 0002:00004c30       ??_C@_0DP@GNPEPHJD@_CrtDbgReport?3?5String?5too?5long?5o@ 000000014002fc30     LIBCMTD:dbgrptt.obj
 0002:00004c70       ??_C@_1IE@CPGKIAGP@?$AAw?$AAc?$AAs?$AAt?$AAo?$AAm?$AAb?$AAs?$AA_?$AAs?$AA?$CI?$AA?$CG?$AAr?$AAe?$AAt?$AA?0?$AA?5?$AAs?$AAz?$AAa?$AAO?$AAu?$AAt?$AAM?$AAe?$AAs?$AAs?$AAa?$AAg?$AAe?$AA?0?$AA?5@ 000000014002fc70     LIBCMTD:dbgrptt.obj
 0002:00004d00       ??_C@_1BJK@FEBNHLFF@?$AA?$CI?$AA?$CI?$AAp?$AAt?$AAl?$AAo?$AAc?$AAi?$AA?9?$AA?$DO?$AAl?$AAc?$AA_?$AAc?$AAa?$AAt?$AAe?$AAg?$AAo?$AAr?$AAy?$AA?$FL?$AAc?$AAa?$AAt?$AAe?$AAg?$AAo?$AAr?$AAy?$AA?$FN?$AA?4@ 000000014002fd00     LIBCMTD:localref.obj
 0002:00004ea0       ??_C@_1FC@HINIIGNO@?$AAf?$AA?3?$AA?2?$AAd?$AAd?$AA?2?$AAv?$AAc?$AAt?$AAo?$AAo?$AAl?$AAs?$AA?2?$AAc?$AAr?$AAt?$AA?2?$AAc?$AAr?$AAt?$AAw?$AA3?$AA2?$AA?2?$AAm?$AAi?$AAs?$AAc?$AA?2?$AAl?$AAo@ 000000014002fea0     LIBCMTD:localref.obj
 0002:00004f18       ??_C@_1M@HPNHIDJI@?$AAj?$AAa?$AA?9?$AAJ?$AAP?$AA?$AA@ 000000014002ff18     LIBCMTD:mbctype.obj
 0002:00004f28       ??_C@_1M@BIBDDEMK@?$AAz?$AAh?$AA?9?$AAC?$AAN?$AA?$AA@ 000000014002ff28     LIBCMTD:mbctype.obj
 0002:00004f38       ??_C@_1M@JLOOOEGK@?$AAk?$AAo?$AA?9?$AAK?$AAR?$AA?$AA@ 000000014002ff38     LIBCMTD:mbctype.obj
 0002:00004f48       ??_C@_1M@CLNBBOPM@?$AAz?$AAh?$AA?9?$AAT?$AAW?$AA?$AA@ 000000014002ff48     LIBCMTD:mbctype.obj
 0002:00004f80       ??_C@_0CM@BEDCPGGG@f?3?2dd?2vctools?2crt?2crtw32?2mbstrin@ 000000014002ff80     LIBCMTD:mbctype.obj
 0002:00004fb0       ??_C@_1CO@HFMIILNF@?$AAs?$AAi?$AAz?$AAe?$AAI?$AAn?$AAB?$AAy?$AAt?$AAe?$AAs?$AA?5?$AA?$DM?$AA?$DN?$AA?5?$AAI?$AAN?$AAT?$AA_?$AAM?$AAA?$AAX?$AA?$AA@ 000000014002ffb0     LIBCMTD:wctomb.obj
 0002:00004fe0       ??_C@_1FE@GKMDCPPB@?$AAf?$AA?3?$AA?2?$AAd?$AAd?$AA?2?$AAv?$AAc?$AAt?$AAo?$AAo?$AAl?$AAs?$AA?2?$AAc?$AAr?$AAt?$AA?2?$AAc?$AAr?$AAt?$AAw?$AA3?$AA2?$AA?2?$AAc?$AAo?$AAn?$AAv?$AAe?$AAr?$AAt@ 000000014002ffe0     LIBCMTD:wctomb.obj
 0002:00005038       ??_C@_1BI@IEADNOHF@?$AA_?$AAw?$AAc?$AAt?$AAo?$AAm?$AAb?$AA_?$AAs?$AA_?$AAl?$AA?$AA@ 0000000140030038     LIBCMTD:wctomb.obj
 0002:00005050       ??_C@_03KOEHGMDN@Sun?$AA@  0000000140030050     LIBCMTD:nlsdata.obj
 0002:00005054       ??_C@_03PDAGKDH@Mon?$AA@   0000000140030054     LIBCMTD:nlsdata.obj
 0002:00005058       ??_C@_03NAGEINEP@Tue?$AA@  0000000140030058     LIBCMTD:nlsdata.obj
 0002:0000505c       ??_C@_03MHOMLAJA@Wed?$AA@  000000014003005c     LIBCMTD:nlsdata.obj
 0002:00005060       ??_C@_03IOFIKPDN@Thu?$AA@  0000000140030060     LIBCMTD:nlsdata.obj
 0002:00005064       ??_C@_03IDIOELNC@Fri?$AA@  0000000140030064     LIBCMTD:nlsdata.obj
 0002:00005068       ??_C@_03FEFJNEK@Sat?$AA@   0000000140030068     LIBCMTD:nlsdata.obj
 0002:0000506c       ??_C@_06OOPIFAJ@Sunday?$AA@ 000000014003006c     LIBCMTD:nlsdata.obj
 0002:00005074       ??_C@_06JLEDEDGH@Monday?$AA@ 0000000140030074     LIBCMTD:nlsdata.obj
 0002:00005080       ??_C@_07BAAGCFCM@Tuesday?$AA@ 0000000140030080     LIBCMTD:nlsdata.obj
 0002:00005088       ??_C@_09DLIGFAKA@Wednesday?$AA@ 0000000140030088     LIBCMTD:nlsdata.obj
 0002:00005098       ??_C@_08HACCIKIA@Thursday?$AA@ 0000000140030098     LIBCMTD:nlsdata.obj
 0002:000050a4       ??_C@_06JECMNKMI@Friday?$AA@ 00000001400300a4     LIBCMTD:nlsdata.obj
 0002:000050b0       ??_C@_08INBOOONO@Saturday?$AA@ 00000001400300b0     LIBCMTD:nlsdata.obj
 0002:000050bc       ??_C@_03JIHJHPIE@Jan?$AA@  00000001400300bc     LIBCMTD:nlsdata.obj
 0002:000050c0       ??_C@_03HJBDCHOM@Feb?$AA@  00000001400300c0     LIBCMTD:nlsdata.obj
 0002:000050c4       ??_C@_03ODNJBKGA@Mar?$AA@  00000001400300c4     LIBCMTD:nlsdata.obj
 0002:000050c8       ??_C@_03LEOLGMJP@Apr?$AA@  00000001400300c8     LIBCMTD:nlsdata.obj
 0002:000050cc       ??_C@_03CNMDKL@May?$AA@    00000001400300cc     LIBCMTD:nlsdata.obj
 0002:000050d0       ??_C@_03IDFGHECI@Jun?$AA@  00000001400300d0     LIBCMTD:nlsdata.obj
 0002:000050d4       ??_C@_03LBGABGKK@Jul?$AA@  00000001400300d4     LIBCMTD:nlsdata.obj
 0002:000050d8       ??_C@_03IFJFEIGA@Aug?$AA@  00000001400300d8     LIBCMTD:nlsdata.obj
 0002:000050dc       ??_C@_03GGCAPAJC@Sep?$AA@  00000001400300dc     LIBCMTD:nlsdata.obj
 0002:000050e0       ??_C@_03BMAOKBAD@Oct?$AA@  00000001400300e0     LIBCMTD:nlsdata.obj
 0002:000050e4       ??_C@_03JPJOFNIA@Nov?$AA@  00000001400300e4     LIBCMTD:nlsdata.obj
 0002:000050e8       ??_C@_03MKABNOCG@Dec?$AA@  00000001400300e8     LIBCMTD:nlsdata.obj
 0002:000050f0       ??_C@_07CGJPFGJA@January?$AA@ 00000001400300f0     LIBCMTD:nlsdata.obj
 0002:000050f8       ??_C@_08GNJGEPFN@February?$AA@ 00000001400300f8     LIBCMTD:nlsdata.obj
 0002:00005104       ??_C@_05HPCKOFNC@March?$AA@ 0000000140030104     LIBCMTD:nlsdata.obj
 0002:0000510c       ??_C@_05DMJDNLEJ@April?$AA@ 000000014003010c     LIBCMTD:nlsdata.obj
 0002:00005114       ??_C@_04CNLMGBGM@June?$AA@ 0000000140030114     LIBCMTD:nlsdata.obj
 0002:0000511c       ??_C@_04MIEPOIFP@July?$AA@ 000000014003011c     LIBCMTD:nlsdata.obj
 0002:00005124       ??_C@_06LBBHFDDG@August?$AA@ 0000000140030124     LIBCMTD:nlsdata.obj
 0002:00005130       ??_C@_09BHHEALKD@September?$AA@ 0000000140030130     LIBCMTD:nlsdata.obj
 0002:00005140       ??_C@_07JJNFCEND@October?$AA@ 0000000140030140     LIBCMTD:nlsdata.obj
 0002:00005148       ??_C@_08HCHEGEOA@November?$AA@ 0000000140030148     LIBCMTD:nlsdata.obj
 0002:00005158       ??_C@_08EDHMEBNP@December?$AA@ 0000000140030158     LIBCMTD:nlsdata.obj
 0002:00005164       ??_C@_02DEDBPAFC@AM?$AA@   0000000140030164     LIBCMTD:nlsdata.obj
 0002:00005168       ??_C@_02CJNFDJBF@PM?$AA@   0000000140030168     LIBCMTD:nlsdata.obj
 0002:00005170       ??_C@_08BPBNCDIB@MM?1dd?1yy?$AA@ 0000000140030170     LIBCMTD:nlsdata.obj
 0002:00005180       ??_C@_0BE@CKGJFCPC@dddd?0?5MMMM?5dd?0?5yyyy?$AA@ 0000000140030180     LIBCMTD:nlsdata.obj
 0002:00005198       ??_C@_08JCCMCCIL@HH?3mm?3ss?$AA@ 0000000140030198     LIBCMTD:nlsdata.obj
 0002:000051a8       ??_C@_17MBGCMIPB@?$AAS?$AAu?$AAn?$AA?$AA@ 00000001400301a8     LIBCMTD:nlsdata.obj
 0002:000051b0       ??_C@_17KBOMKBF@?$AAM?$AAo?$AAn?$AA?$AA@ 00000001400301b0     LIBCMTD:nlsdata.obj
 0002:000051b8       ??_C@_17BMKGEGOJ@?$AAT?$AAu?$AAe?$AA?$AA@ 00000001400301b8     LIBCMTD:nlsdata.obj
 0002:000051c0       ??_C@_17CJEDCEPE@?$AAW?$AAe?$AAd?$AA?$AA@ 00000001400301c0     LIBCMTD:nlsdata.obj
 0002:000051c8       ??_C@_17PDPHAADD@?$AAT?$AAh?$AAu?$AA?$AA@ 00000001400301c8     LIBCMTD:nlsdata.obj
 0002:000051d0       ??_C@_17HFOLPPLP@?$AAF?$AAr?$AAi?$AA?$AA@ 00000001400301d0     LIBCMTD:nlsdata.obj
 0002:000051d8       ??_C@_17GGIBDPIH@?$AAS?$AAa?$AAt?$AA?$AA@ 00000001400301d8     LIBCMTD:nlsdata.obj
 0002:000051e0       ??_C@_1O@IHNHDHPB@?$AAS?$AAu?$AAn?$AAd?$AAa?$AAy?$AA?$AA@ 00000001400301e0     LIBCMTD:nlsdata.obj
 0002:000051f0       ??_C@_1O@MMNBFLIA@?$AAM?$AAo?$AAn?$AAd?$AAa?$AAy?$AA?$AA@ 00000001400301f0     LIBCMTD:nlsdata.obj
 0002:00005200       ??_C@_1BA@ENFBFFEK@?$AAT?$AAu?$AAe?$AAs?$AAd?$AAa?$AAy?$AA?$AA@ 0000000140030200     LIBCMTD:nlsdata.obj
 0002:00005210       ??_C@_1BE@EBOGMDOH@?$AAW?$AAe?$AAd?$AAn?$AAe?$AAs?$AAd?$AAa?$AAy?$AA?$AA@ 0000000140030210     LIBCMTD:nlsdata.obj
 0002:00005228       ??_C@_1BC@HHMNLIHE@?$AAT?$AAh?$AAu?$AAr?$AAs?$AAd?$AAa?$AAy?$AA?$AA@ 0000000140030228     LIBCMTD:nlsdata.obj
 0002:00005240       ??_C@_1O@PDICJHAG@?$AAF?$AAr?$AAi?$AAd?$AAa?$AAy?$AA?$AA@ 0000000140030240     LIBCMTD:nlsdata.obj
 0002:00005250       ??_C@_1BC@ENMNNPAJ@?$AAS?$AAa?$AAt?$AAu?$AAr?$AAd?$AAa?$AAy?$AA?$AA@ 0000000140030250     LIBCMTD:nlsdata.obj
 0002:00005268       ??_C@_17DKNBKCHM@?$AAJ?$AAa?$AAn?$AA?$AA@ 0000000140030268     LIBCMTD:nlsdata.obj
 0002:00005270       ??_C@_17LMDJEKJN@?$AAF?$AAe?$AAb?$AA?$AA@ 0000000140030270     LIBCMTD:nlsdata.obj
 0002:00005278       ??_C@_17CKNLEDEC@?$AAM?$AAa?$AAr?$AA?$AA@ 0000000140030278     LIBCMTD:nlsdata.obj
 0002:00005280       ??_C@_17LFPOIHDD@?$AAA?$AAp?$AAr?$AA?$AA@ 0000000140030280     LIBCMTD:nlsdata.obj
 0002:00005288       ??_C@_17PNNKMEED@?$AAM?$AAa?$AAy?$AA?$AA@ 0000000140030288     LIBCMTD:nlsdata.obj
 0002:00005290       ??_C@_17KCJGOCPB@?$AAJ?$AAu?$AAn?$AA?$AA@ 0000000140030290     LIBCMTD:nlsdata.obj
 0002:00005298       ??_C@_17IJPCKHK@?$AAJ?$AAu?$AAl?$AA?$AA@ 0000000140030298     LIBCMTD:nlsdata.obj
 0002:000052a0       ??_C@_17ICPELBCN@?$AAA?$AAu?$AAg?$AA?$AA@ 00000001400302a0     LIBCMTD:nlsdata.obj
 0002:000052a8       ??_C@_17HCHCOKMG@?$AAS?$AAe?$AAp?$AA?$AA@ 00000001400302a8     LIBCMTD:nlsdata.obj
 0002:000052b0       ??_C@_17FNLKOI@?$AAO?$AAc?$AAt?$AA?$AA@ 00000001400302b0     LIBCMTD:nlsdata.obj
 0002:000052b8       ??_C@_17BBDMLCIG@?$AAN?$AAo?$AAv?$AA?$AA@ 00000001400302b8     LIBCMTD:nlsdata.obj
 0002:000052c0       ??_C@_17EGKACKIF@?$AAD?$AAe?$AAc?$AA?$AA@ 00000001400302c0     LIBCMTD:nlsdata.obj
 0002:000052c8       ??_C@_1BA@EFMEIEBA@?$AAJ?$AAa?$AAn?$AAu?$AAa?$AAr?$AAy?$AA?$AA@ 00000001400302c8     LIBCMTD:nlsdata.obj
 0002:000052d8       ??_C@_1BC@JGDDFFAM@?$AAF?$AAe?$AAb?$AAr?$AAu?$AAa?$AAr?$AAy?$AA?$AA@ 00000001400302d8     LIBCMTD:nlsdata.obj
 0002:000052f0       ??_C@_1M@IKEENEDF@?$AAM?$AAa?$AAr?$AAc?$AAh?$AA?$AA@ 00000001400302f0     LIBCMTD:nlsdata.obj
 0002:00005300       ??_C@_1M@GJNLMHFD@?$AAA?$AAp?$AAr?$AAi?$AAl?$AA?$AA@ 0000000140030300     LIBCMTD:nlsdata.obj
 0002:00005310       ??_C@_19EPFLPGAP@?$AAJ?$AAu?$AAn?$AAe?$AA?$AA@ 0000000140030310     LIBCMTD:nlsdata.obj
 0002:00005320       ??_C@_19BIFMLPCD@?$AAJ?$AAu?$AAl?$AAy?$AA?$AA@ 0000000140030320     LIBCMTD:nlsdata.obj
 0002:00005330       ??_C@_1O@PAHLKOAC@?$AAA?$AAu?$AAg?$AAu?$AAs?$AAt?$AA?$AA@ 0000000140030330     LIBCMTD:nlsdata.obj
 0002:00005340       ??_C@_1BE@DKAAMBJL@?$AAS?$AAe?$AAp?$AAt?$AAe?$AAm?$AAb?$AAe?$AAr?$AA?$AA@ 0000000140030340     LIBCMTD:nlsdata.obj
 0002:00005358       ??_C@_1BA@EPANDLNG@?$AAO?$AAc?$AAt?$AAo?$AAb?$AAe?$AAr?$AA?$AA@ 0000000140030358     LIBCMTD:nlsdata.obj
 0002:00005368       ??_C@_1BC@BGLIFPF@?$AAN?$AAo?$AAv?$AAe?$AAm?$AAb?$AAe?$AAr?$AA?$AA@ 0000000140030368     LIBCMTD:nlsdata.obj
 0002:00005380       ??_C@_1BC@FEMKIFH@?$AAD?$AAe?$AAc?$AAe?$AAm?$AAb?$AAe?$AAr?$AA?$AA@ 0000000140030380     LIBCMTD:nlsdata.obj
 0002:00005394       ??_C@_15ODEHAHHF@?$AAA?$AAM?$AA?$AA@ 0000000140030394     LIBCMTD:nlsdata.obj
 0002:0000539c       ??_C@_15CLMNNGEL@?$AAP?$AAM?$AA?$AA@ 000000014003039c     LIBCMTD:nlsdata.obj
 0002:000053a8       ??_C@_1BC@IEBCMHCM@?$AAM?$AAM?$AA?1?$AAd?$AAd?$AA?1?$AAy?$AAy?$AA?$AA@ 00000001400303a8     LIBCMTD:nlsdata.obj
 0002:000053c0       ??_C@_1CI@KNAKOEBC@?$AAd?$AAd?$AAd?$AAd?$AA?0?$AA?5?$AAM?$AAM?$AAM?$AAM?$AA?5?$AAd?$AAd?$AA?0?$AA?5?$AAy?$AAy?$AAy?$AAy?$AA?$AA@ 00000001400303c0     LIBCMTD:nlsdata.obj
 0002:000053e8       ??_C@_1BC@GDGBMEMK@?$AAH?$AAH?$AA?3?$AAm?$AAm?$AA?3?$AAs?$AAs?$AA?$AA@ 00000001400303e8     LIBCMTD:nlsdata.obj
 0002:00005400       ??_C@_1M@BMHNFIME@?$AAe?$AAn?$AA?9?$AAU?$AAS?$AA?$AA@ 0000000140030400     LIBCMTD:nlsdata.obj
 0002:00005410       ??_C@_1CI@JELMFMDH@?$AAc?$AA?5?$AA?$DO?$AA?$DN?$AA?5?$AA?9?$AA1?$AA?5?$AA?$CG?$AA?$CG?$AA?5?$AAc?$AA?5?$AA?$DM?$AA?$DN?$AA?5?$AA2?$AA5?$AA5?$AA?$AA@ 0000000140030410     LIBCMTD:isctype.obj
 0002:00005440       ??_C@_1FG@IBFIOCOE@?$AAf?$AA?3?$AA?2?$AAd?$AAd?$AA?2?$AAv?$AAc?$AAt?$AAo?$AAo?$AAl?$AAs?$AA?2?$AAc?$AAr?$AAt?$AA?2?$AAc?$AAr?$AAt?$AAw?$AA3?$AA2?$AA?2?$AAc?$AAo?$AAn?$AAv?$AAe?$AAr?$AAt@ 0000000140030440     LIBCMTD:isctype.obj
 0002:00005498       ??_C@_1BO@KFIJIAEA@?$AAp?$AAB?$AAl?$AAo?$AAc?$AAk?$AA?5?$AA?$CB?$AA?$DN?$AA?5?$AAN?$AAU?$AAL?$AAL?$AA?$AA@ 0000000140030498     LIBCMTD:expand.obj
 0002:000054c0       ??_C@_1EO@BOMKIKJB@?$AAf?$AA?3?$AA?2?$AAd?$AAd?$AA?2?$AAv?$AAc?$AAt?$AAo?$AAo?$AAl?$AAs?$AA?2?$AAc?$AAr?$AAt?$AA?2?$AAc?$AAr?$AAt?$AAw?$AA3?$AA2?$AA?2?$AAh?$AAe?$AAa?$AAp?$AA?2?$AAe?$AAx@ 00000001400304c0     LIBCMTD:expand.obj
 0002:00005510       ??_C@_1BK@JMCGJOCC@?$AA_?$AAe?$AAx?$AAp?$AAa?$AAn?$AAd?$AA_?$AAb?$AAa?$AAs?$AAe?$AA?$AA@ 0000000140030510     LIBCMTD:expand.obj
 0002:00005548       ??_C@_03KHICJKCI@?4?4?4?$AA@ 0000000140030548     LIBCMTD:dbgrpt.obj
 0002:00005550       ??_C@_1CI@IDOKFLAJ@?$AA_?$AA_?$AAc?$AAr?$AAt?$AAM?$AAe?$AAs?$AAs?$AAa?$AAg?$AAe?$AAW?$AAi?$AAn?$AAd?$AAo?$AAw?$AAA?$AA?$AA@ 0000000140030550     LIBCMTD:dbgrpt.obj
 0002:00005580       ??_C@_1GG@DLDHOIGE@?$AAs?$AAt?$AAr?$AAc?$AAp?$AAy?$AA_?$AAs?$AA?$CI?$AAs?$AAz?$AAE?$AAx?$AAe?$AAN?$AAa?$AAm?$AAe?$AA?0?$AA?5?$AA2?$AA6?$AA0?$AA?0?$AA?5?$AA?$CC?$AA?$DM?$AAp?$AAr?$AAo?$AAg?$AAr@ 0000000140030580     LIBCMTD:dbgrpt.obj
 0002:000055e8       ??_C@_0BH@DNAGHKFM@?$DMprogram?5name?5unknown?$DO?$AA@ 00000001400305e8     LIBCMTD:dbgrpt.obj
 0002:00005600       ??_C@_1LG@BEHAHJLI@?$AAD?$AAe?$AAb?$AAu?$AAg?$AA?5?$AA?$CF?$AAs?$AA?$CB?$AA?6?$AA?6?$AAP?$AAr?$AAo?$AAg?$AAr?$AAa?$AAm?$AA?3?$AA?5?$AA?$CF?$AAh?$AAs?$AA?$CF?$AAs?$AA?$CF?$AAs?$AA?$CF?$AAh?$AAs?$AA?$CF?$AAs@ 0000000140030600     LIBCMTD:dbgrpt.obj
 0002:000056b8       ??_C@_03KHJOGHMM@exp?$AA@  00000001400306b8     LIBCMTD:fpexcept.obj
 0002:000056bc       ??_C@_03JGHBODFD@pow?$AA@  00000001400306bc     LIBCMTD:fpexcept.obj
 0002:000056c0       ??_C@_03MGHMBJCF@log?$AA@  00000001400306c0     LIBCMTD:fpexcept.obj
 0002:000056c4       ??_C@_05HGHHAHAP@log10?$AA@ 00000001400306c4     LIBCMTD:fpexcept.obj
 0002:000056cc       ??_C@_04COOMCNPB@sinh?$AA@ 00000001400306cc     LIBCMTD:fpexcept.obj
 0002:000056d4       ??_C@_04HPJJNFIM@cosh?$AA@ 00000001400306d4     LIBCMTD:fpexcept.obj
 0002:000056dc       ??_C@_04FJHINJAO@tanh?$AA@ 00000001400306dc     LIBCMTD:fpexcept.obj
 0002:000056e4       ??_C@_04FIHNOPOL@asin?$AA@ 00000001400306e4     LIBCMTD:fpexcept.obj
 0002:000056ec       ??_C@_04PDIFKINK@acos?$AA@ 00000001400306ec     LIBCMTD:fpexcept.obj
 0002:000056f4       ??_C@_04MLLJIGOK@atan?$AA@ 00000001400306f4     LIBCMTD:fpexcept.obj
 0002:000056fc       ??_C@_05KNGEOGJB@atan2?$AA@ 00000001400306fc     LIBCMTD:fpexcept.obj
 0002:00005704       ??_C@_04EIAKFFMI@sqrt?$AA@ 0000000140030704     LIBCMTD:fpexcept.obj
 0002:0000570c       ??_C@_03BLEJJJBH@sin?$AA@  000000014003070c     LIBCMTD:fpexcept.obj
 0002:00005710       ??_C@_03LALBNOCG@cos?$AA@  0000000140030710     LIBCMTD:fpexcept.obj
 0002:00005714       ??_C@_03IIINPABG@tan?$AA@  0000000140030714     LIBCMTD:fpexcept.obj
 0002:00005718       ??_C@_04GFPJNGEK@ceil?$AA@ 0000000140030718     LIBCMTD:fpexcept.obj
 0002:00005720       ??_C@_05PBJFFIGL@floor?$AA@ 0000000140030720     LIBCMTD:fpexcept.obj
 0002:00005728       ??_C@_04ODHECPBC@fabs?$AA@ 0000000140030728     LIBCMTD:fpexcept.obj
 0002:00005730       ??_C@_04EHEDPDJG@modf?$AA@ 0000000140030730     LIBCMTD:fpexcept.obj
 0002:00005738       ??_C@_05CEJMAHNP@ldexp?$AA@ 0000000140030738     LIBCMTD:fpexcept.obj
 0002:00005740       ??_C@_05KBKMEMPO@_cabs?$AA@ 0000000140030740     LIBCMTD:fpexcept.obj
 0002:00005748       ??_C@_06MEIMCGCF@_hypot?$AA@ 0000000140030748     LIBCMTD:fpexcept.obj
 0002:00005750       ??_C@_04KEPJIHGP@fmod?$AA@ 0000000140030750     LIBCMTD:fpexcept.obj
 0002:00005758       ??_C@_05GKKHEGJL@frexp?$AA@ 0000000140030758     LIBCMTD:fpexcept.obj
 0002:00005760       ??_C@_03MJLDFKDL@_y0?$AA@  0000000140030760     LIBCMTD:fpexcept.obj
 0002:00005764       ??_C@_03NAKIGLHK@_y1?$AA@  0000000140030764     LIBCMTD:fpexcept.obj
 0002:00005768       ??_C@_03ONILCKOB@_yn?$AA@  0000000140030768     LIBCMTD:fpexcept.obj
 0002:0000576c       ??_C@_05JGDBENOH@_logb?$AA@ 000000014003076c     LIBCMTD:fpexcept.obj
 0002:00005778       ??_C@_0L@KDOEJCKC@_nextafter?$AA@ 0000000140030778     LIBCMTD:fpexcept.obj
 0002:00005790       ??_C@_1FC@NCPEPIBI@?$AA?$CI?$AA?$CI?$AA_?$AAD?$AAs?$AAt?$AA?$CJ?$AA?$CJ?$AA?5?$AA?$CB?$AA?$DN?$AA?5?$AAN?$AAU?$AAL?$AAL?$AA?5?$AA?$CG?$AA?$CG?$AA?5?$AA?$CI?$AA?$CI?$AA_?$AAS?$AAi?$AAz?$AAe?$AAI?$AAn?$AAB?$AAy?$AAt@ 0000000140030790     LIBCMTD:strcpy_s.obj
 0002:000057e8       ??_C@_1BC@CFJEPFGF@?$AAs?$AAt?$AAr?$AAc?$AAp?$AAy?$AA_?$AAs?$AA?$AA@ 00000001400307e8     LIBCMTD:strcpy_s.obj
 0002:00005800       ??_C@_1FI@JBLIKEIM@?$AAf?$AA?3?$AA?2?$AAd?$AAd?$AA?2?$AAv?$AAc?$AAt?$AAo?$AAo?$AAl?$AAs?$AA?2?$AAc?$AAr?$AAt?$AA?2?$AAc?$AAr?$AAt?$AAw?$AA3?$AA2?$AA?2?$AAc?$AAo?$AAn?$AAv?$AAe?$AAr?$AAt@ 0000000140030800     LIBCMTD:_fptostr.obj
 0002:00005858       ??_C@_1BC@OPALLEB@?$AA_?$AAf?$AAp?$AAt?$AAo?$AAs?$AAt?$AAr?$AA?$AA@ 0000000140030858     LIBCMTD:_fptostr.obj
 0002:00005870       ??_C@_1GM@CEDLGDDI@?$AAs?$AAi?$AAz?$AAe?$AAI?$AAn?$AAB?$AAy?$AAt?$AAe?$AAs?$AA?5?$AA?$DO?$AA?5?$AA?$CI?$AAs?$AAi?$AAz?$AAe?$AA_?$AAt?$AA?$CJ?$AA?$CI?$AA?$CI?$AAd?$AAi?$AAg?$AAi?$AAt?$AAs?$AA?5?$AA?$DO@ 0000000140030870     LIBCMTD:_fptostr.obj
 0002:000058e0       ??_C@_1BK@CLIEHFDF@?$AAp?$AAf?$AAl?$AAt?$AA?5?$AA?$CB?$AA?$DN?$AA?5?$AAN?$AAU?$AAL?$AAL?$AA?$AA@ 00000001400308e0     LIBCMTD:_fptostr.obj
 0002:00005900       ??_C@_1EK@LJBJCHGA@?$AAf?$AA?3?$AA?2?$AAd?$AAd?$AA?2?$AAv?$AAc?$AAt?$AAo?$AAo?$AAl?$AAs?$AA?2?$AAc?$AAr?$AAt?$AA?2?$AAf?$AAp?$AAw?$AA3?$AA2?$AA?2?$AAc?$AAo?$AAn?$AAv?$AA?2?$AAc?$AAf?$AAo@ 0000000140030900     LIBCMTD:cfout.obj
 0002:00005950       ??_C@_1BC@BPMMEHLK@?$AA_?$AAf?$AAl?$AAt?$AAo?$AAu?$AAt?$AA2?$AA?$AA@ 0000000140030950     LIBCMTD:cfout.obj
 0002:00005970       ??_C@_1FK@KODCOBKF@?$AAs?$AAt?$AAr?$AAc?$AAp?$AAy?$AA_?$AAs?$AA?$CI?$AAr?$AAe?$AAs?$AAu?$AAl?$AAt?$AAs?$AAt?$AAr?$AA?0?$AA?5?$AAr?$AAe?$AAs?$AAu?$AAl?$AAt?$AAs?$AAi?$AAz?$AAe?$AA?0?$AA?5@ 0000000140030970     LIBCMTD:cfout.obj
 0002:000059d0       ??_C@_0CH@JPGODKFM@f?3?2dd?2vctools?2crt?2crtw32?2misc?2on@ 00000001400309d0     LIBCMTD:onexit.obj
 0002:00005a20       ??_C@_1FA@EDIAPAPE@?$AAf?$AA?3?$AA?2?$AAd?$AAd?$AA?2?$AAv?$AAc?$AAt?$AAo?$AAo?$AAl?$AAs?$AA?2?$AAc?$AAr?$AAt?$AA?2?$AAc?$AAr?$AAt?$AAw?$AA3?$AA2?$AA?2?$AAh?$AA?2?$AAt?$AAc?$AAs?$AAc?$AAa@ 0000000140030a20     LIBCMTD:wcscat_s.obj
 0002:00005a70       ??_C@_1BC@PLIEPKPJ@?$AAw?$AAc?$AAs?$AAc?$AAa?$AAt?$AA_?$AAs?$AA?$AA@ 0000000140030a70     LIBCMTD:wcscat_s.obj
 0002:00005a88       ??_C@_1DM@FHLMIEG@?$AAS?$AAt?$AAr?$AAi?$AAn?$AAg?$AA?5?$AAi?$AAs?$AA?5?$AAn?$AAo?$AAt?$AA?5?$AAn?$AAu?$AAl?$AAl?$AA?5?$AAt?$AAe?$AAr?$AAm?$AAi?$AAn?$AAa?$AAt?$AAe?$AAd?$AA?$AA@ 0000000140030a88     LIBCMTD:wcscat_s.obj
 0002:00005ad0       ??_C@_1FA@MJKDNFFB@?$AA?$CI?$AAL?$AA?$CC?$AAS?$AAt?$AAr?$AAi?$AAn?$AAg?$AA?5?$AAi?$AAs?$AA?5?$AAn?$AAo?$AAt?$AA?5?$AAn?$AAu?$AAl?$AAl?$AA?5?$AAt?$AAe?$AAr?$AAm?$AAi?$AAn?$AAa?$AAt?$AAe?$AAd@ 0000000140030ad0     LIBCMTD:wcscat_s.obj
 0002:00005b20       ??_C@_1FC@LFLBLJJB@?$AAf?$AA?3?$AA?2?$AAd?$AAd?$AA?2?$AAv?$AAc?$AAt?$AAo?$AAo?$AAl?$AAs?$AA?2?$AAc?$AAr?$AAt?$AA?2?$AAc?$AAr?$AAt?$AAw?$AA3?$AA2?$AA?2?$AAh?$AA?2?$AAt?$AAc?$AAs?$AAn?$AAc@ 0000000140030b20     LIBCMTD:wcsncpy_s.obj
 0002:00005b78       ??_C@_1BE@PMMBFFCC@?$AAw?$AAc?$AAs?$AAn?$AAc?$AAp?$AAy?$AA_?$AAs?$AA?$AA@ 0000000140030b78     LIBCMTD:wcsncpy_s.obj
 0002:00005b90       ??_C@_1FC@BEKMGBFL@?$AAf?$AA?3?$AA?2?$AAd?$AAd?$AA?2?$AAv?$AAc?$AAt?$AAo?$AAo?$AAl?$AAs?$AA?2?$AAc?$AAr?$AAt?$AA?2?$AAc?$AAr?$AAt?$AAw?$AA3?$AA2?$AA?2?$AAl?$AAo?$AAw?$AAi?$AAo?$AA?2?$AAo@ 0000000140030b90     LIBCMTD:osfinfo.obj
 0002:00005be8       ??_C@_1BO@EMBOBGKE@?$AA_?$AAg?$AAe?$AAt?$AA_?$AAo?$AAs?$AAf?$AAh?$AAa?$AAn?$AAd?$AAl?$AAe?$AA?$AA@ 0000000140030be8     LIBCMTD:osfinfo.obj
 0002:00005c10       ??_C@_1NC@EINCOKCO@?$AA_?$AAl?$AAo?$AAc?$AA_?$AAu?$AAp?$AAd?$AAa?$AAt?$AAe?$AA?4?$AAG?$AAe?$AAt?$AAL?$AAo?$AAc?$AAa?$AAl?$AAe?$AAT?$AA?$CI?$AA?$CJ?$AA?9?$AA?$DO?$AAl?$AAo?$AAc?$AAi?$AAn?$AAf@ 0000000140030c10     LIBCMTD:mbtowc.obj
 0002:00005cf0       ??_C@_1FE@EKLDGEI@?$AAf?$AA?3?$AA?2?$AAd?$AAd?$AA?2?$AAv?$AAc?$AAt?$AAo?$AAo?$AAl?$AAs?$AA?2?$AAc?$AAr?$AAt?$AA?2?$AAc?$AAr?$AAt?$AAw?$AA3?$AA2?$AA?2?$AAc?$AAo?$AAn?$AAv?$AAe?$AAr?$AAt@ 0000000140030cf0     LIBCMTD:mbtowc.obj
 0002:00005d50       ??_C@_1FE@DHCMIOFC@?$AAf?$AA?3?$AA?2?$AAd?$AAd?$AA?2?$AAv?$AAc?$AAt?$AAo?$AAo?$AAl?$AAs?$AA?2?$AAc?$AAr?$AAt?$AA?2?$AAc?$AAr?$AAt?$AAw?$AA3?$AA2?$AA?2?$AAs?$AAt?$AAd?$AAi?$AAo?$AA?2?$AAv@ 0000000140030d50     LIBCMTD:vswprint.obj
 0002:00005da8       ??_C@_1CE@IGKFIJFD@?$AA_?$AAv?$AAs?$AAw?$AAp?$AAr?$AAi?$AAn?$AAt?$AAf?$AA_?$AAh?$AAe?$AAl?$AAp?$AAe?$AAr?$AA?$AA@ 0000000140030da8     LIBCMTD:vswprnc.obj
 0002:00005dd0       ??_C@_1EE@MPCHJFGP@?$AAs?$AAt?$AAr?$AAi?$AAn?$AAg?$AA?5?$AA?$CB?$AA?$DN?$AA?5?$AAN?$AAU?$AAL?$AAL?$AA?5?$AA?$CG?$AA?$CG?$AA?5?$AAs?$AAi?$AAz?$AAe?$AAI?$AAn?$AAW?$AAo?$AAr?$AAd?$AAs?$AA?5?$AA?$DO?$AA?5@ 0000000140030dd0     LIBCMTD:vswprnc.obj
 0002:00005e18       ??_C@_1CA@BKFKMJFF@?$AA_?$AAv?$AAs?$AAn?$AAw?$AAp?$AAr?$AAi?$AAn?$AAt?$AAf?$AA_?$AAs?$AA_?$AAl?$AA?$AA@ 0000000140030e18     LIBCMTD:vswprnc.obj
 0002:00005e38       ??_C@_1BC@HGPNAKGC@?$AAs?$AAt?$AAr?$AAc?$AAa?$AAt?$AA_?$AAs?$AA?$AA@ 0000000140030e38     LIBCMTD:strcat_s.obj
 0002:00005e50       ??_C@_1FA@LEFFAILN@?$AAf?$AA?3?$AA?2?$AAd?$AAd?$AA?2?$AAv?$AAc?$AAt?$AAo?$AAo?$AAl?$AAs?$AA?2?$AAc?$AAr?$AAt?$AA?2?$AAc?$AAr?$AAt?$AAw?$AA3?$AA2?$AA?2?$AAc?$AAo?$AAn?$AAv?$AAe?$AAr?$AAt@ 0000000140030e50     LIBCMTD:xtoas.obj
 0002:00005ea0       ??_C@_1O@GIMBNLEI@?$AAx?$AAt?$AAo?$AAa?$AA_?$AAs?$AA?$AA@ 0000000140030ea0     LIBCMTD:xtoas.obj
 0002:00005eb0       ??_C@_1CC@JNJFIMGE@?$AAs?$AAi?$AAz?$AAe?$AAI?$AAn?$AAT?$AAC?$AAh?$AAa?$AAr?$AAs?$AA?5?$AA?$DO?$AA?5?$AA0?$AA?$AA@ 0000000140030eb0     LIBCMTD:xtoas.obj
 0002:00005ee0       ??_C@_1FA@MKGGAGEI@?$AAs?$AAi?$AAz?$AAe?$AAI?$AAn?$AAT?$AAC?$AAh?$AAa?$AAr?$AAs?$AA?5?$AA?$DO?$AA?5?$AA?$CI?$AAs?$AAi?$AAz?$AAe?$AA_?$AAt?$AA?$CJ?$AA?$CI?$AAi?$AAs?$AA_?$AAn?$AAe?$AAg?$AA?5?$AA?$DP@ 0000000140030ee0     LIBCMTD:xtoas.obj
 0002:00005f30       ??_C@_1DE@PCJGDBBD@?$AA2?$AA?5?$AA?$DM?$AA?$DN?$AA?5?$AAr?$AAa?$AAd?$AAi?$AAx?$AA?5?$AA?$CG?$AA?$CG?$AA?5?$AAr?$AAa?$AAd?$AAi?$AAx?$AA?5?$AA?$DM?$AA?$DN?$AA?5?$AA3?$AA6?$AA?$AA@ 0000000140030f30     LIBCMTD:xtoas.obj
 0002:00005f68       ??_C@_1CM@HABGDNLJ@?$AAl?$AAe?$AAn?$AAg?$AAt?$AAh?$AA?5?$AA?$DM?$AA?5?$AAs?$AAi?$AAz?$AAe?$AAI?$AAn?$AAT?$AAC?$AAh?$AAa?$AAr?$AAs?$AA?$AA@ 0000000140030f68     LIBCMTD:xtoas.obj
 0002:00005f98       ??_C@_1BE@EEKACIGI@?$AAs?$AA?5?$AA?$CB?$AA?$DN?$AA?5?$AAN?$AAU?$AAL?$AAL?$AA?$AA@ 0000000140030f98     LIBCMTD:mbstowcs.obj
 0002:00005fb0       ??_C@_1FI@DADFCCMF@?$AAf?$AA?3?$AA?2?$AAd?$AAd?$AA?2?$AAv?$AAc?$AAt?$AAo?$AAo?$AAl?$AAs?$AA?2?$AAc?$AAr?$AAt?$AA?2?$AAc?$AAr?$AAt?$AAw?$AA3?$AA2?$AA?2?$AAc?$AAo?$AAn?$AAv?$AAe?$AAr?$AAt@ 0000000140030fb0     LIBCMTD:mbstowcs.obj
 0002:00006008       ??_C@_1CG@JEHFHLNG@?$AA_?$AAm?$AAb?$AAs?$AAt?$AAo?$AAw?$AAc?$AAs?$AA_?$AAl?$AA_?$AAh?$AAe?$AAl?$AAp?$AAe?$AAr?$AA?$AA@ 0000000140031008     LIBCMTD:mbstowcs.obj
 0002:00006030       ??_C@_1JA@JKDFMOPO@?$AA?$CI?$AAp?$AAw?$AAc?$AAs?$AA?5?$AA?$DN?$AA?$DN?$AA?5?$AAN?$AAU?$AAL?$AAL?$AA?5?$AA?$CG?$AA?$CG?$AA?5?$AAs?$AAi?$AAz?$AAe?$AAI?$AAn?$AAW?$AAo?$AAr?$AAd?$AAs?$AA?5?$AA?$DN?$AA?$DN?$AA?5@ 0000000140031030     LIBCMTD:mbstowcs.obj
 0002:000060c0       ??_C@_1BM@PHENIGHD@?$AA_?$AAm?$AAb?$AAs?$AAt?$AAo?$AAw?$AAc?$AAs?$AA_?$AAs?$AA_?$AAl?$AA?$AA@ 00000001400310c0     LIBCMTD:mbstowcs.obj
 0002:000060e0       ??_C@_1CM@LLECFMFH@?$AAb?$AAu?$AAf?$AAf?$AAe?$AAr?$AAS?$AAi?$AAz?$AAe?$AA?5?$AA?$DM?$AA?$DN?$AA?5?$AAI?$AAN?$AAT?$AA_?$AAM?$AAA?$AAX?$AA?$AA@ 00000001400310e0     LIBCMTD:mbstowcs.obj
 0002:00006110       ??_C@_1CO@JNPEPJAL@?$AAr?$AAe?$AAt?$AAs?$AAi?$AAz?$AAe?$AA?5?$AA?$DM?$AA?$DN?$AA?5?$AAs?$AAi?$AAz?$AAe?$AAI?$AAn?$AAW?$AAo?$AAr?$AAd?$AAs?$AA?$AA@ 0000000140031110     LIBCMTD:mbstowcs.obj
 0002:00006140       ??_C@_1BK@OIBENBPM@?$AAp?$AAw?$AAc?$AAs?$AA?5?$AA?$CB?$AA?$DN?$AA?5?$AAN?$AAU?$AAL?$AAL?$AA?$AA@ 0000000140031140     LIBCMTD:wcstombs.obj
 0002:00006160       ??_C@_1FI@GCFLNCOB@?$AAf?$AA?3?$AA?2?$AAd?$AAd?$AA?2?$AAv?$AAc?$AAt?$AAo?$AAo?$AAl?$AAs?$AA?2?$AAc?$AAr?$AAt?$AA?2?$AAc?$AAr?$AAt?$AAw?$AA3?$AA2?$AA?2?$AAc?$AAo?$AAn?$AAv?$AAe?$AAr?$AAt@ 0000000140031160     LIBCMTD:wcstombs.obj
 0002:000061b8       ??_C@_1CG@LLJCAOHF@?$AA_?$AAw?$AAc?$AAs?$AAt?$AAo?$AAm?$AAb?$AAs?$AA_?$AAl?$AA_?$AAh?$AAe?$AAl?$AAp?$AAe?$AAr?$AA?$AA@ 00000001400311b8     LIBCMTD:wcstombs.obj
 0002:000061e0       ??_C@_1IM@MFGKHGBP@?$AA?$CI?$AAd?$AAs?$AAt?$AA?5?$AA?$CB?$AA?$DN?$AA?5?$AAN?$AAU?$AAL?$AAL?$AA?5?$AA?$CG?$AA?$CG?$AA?5?$AAs?$AAi?$AAz?$AAe?$AAI?$AAn?$AAB?$AAy?$AAt?$AAe?$AAs?$AA?5?$AA?$DO?$AA?5?$AA0?$AA?$CJ@ 00000001400311e0     LIBCMTD:wcstombs.obj
 0002:00006270       ??_C@_1BM@BDMCLLDL@?$AA_?$AAw?$AAc?$AAs?$AAt?$AAo?$AAm?$AAb?$AAs?$AA_?$AAs?$AA_?$AAl?$AA?$AA@ 0000000140031270     LIBCMTD:wcstombs.obj
 0002:00006290       ??_C@_1CM@KEOGBFLI@?$AAs?$AAi?$AAz?$AAe?$AAI?$AAn?$AAB?$AAy?$AAt?$AAe?$AAs?$AA?5?$AA?$DO?$AA?5?$AAr?$AAe?$AAt?$AAs?$AAi?$AAz?$AAe?$AA?$AA@ 0000000140031290     LIBCMTD:wcstombs.obj
 0002:000062c0       ??_C@_1O@NCBFODOE@?$AAx?$AAt?$AAo?$AAw?$AA_?$AAs?$AA?$AA@ 00000001400312c0     LIBCMTD:xtows.obj
 0002:000062d0       ??_C@_1FE@KNPCCODH@?$AA?$CI?$AA?$CC?$AAC?$AAo?$AAr?$AAr?$AAu?$AAp?$AAt?$AAe?$AAd?$AA?5?$AAp?$AAo?$AAi?$AAn?$AAt?$AAe?$AAr?$AA?5?$AAp?$AAa?$AAs?$AAs?$AAe?$AAd?$AA?5?$AAt?$AAo?$AA?5?$AA_?$AAf@ 00000001400312d0     LIBCMTD:a_map.obj
 0002:00006330       ??_C@_1EI@DKDOCKPJ@?$AAf?$AA?3?$AA?2?$AAd?$AAd?$AA?2?$AAv?$AAc?$AAt?$AAo?$AAo?$AAl?$AAs?$AA?2?$AAc?$AAr?$AAt?$AA?2?$AAc?$AAr?$AAt?$AAw?$AA3?$AA2?$AA?2?$AAh?$AA?2?$AAm?$AAa?$AAl?$AAl?$AAo@ 0000000140031330     LIBCMTD:a_map.obj
 0002:00006420       __newctype                 0000000140031420     LIBCMTD:ctype.obj
 0002:00006720       _wctype                    0000000140031720     LIBCMTD:ctype.obj
 0002:00006930       __newclmap                 0000000140031930     LIBCMTD:ctype.obj
 0002:00006ab0       __newcumap                 0000000140031ab0     LIBCMTD:ctype.obj
 0002:00006cc0       ??_C@_1CA@MBDBOHIB@?$AA_?$AAL?$AAo?$AAc?$AAa?$AAl?$AAe?$AA?5?$AA?$CB?$AA?$DN?$AA?5?$AAN?$AAU?$AAL?$AAL?$AA?$AA@ 0000000140031cc0     LIBCMTD:strgtold.obj
 0002:00006ce0       ??_C@_1FO@OFJNJPKB@?$AAf?$AA?3?$AA?2?$AAd?$AAd?$AA?2?$AAv?$AAc?$AAt?$AAo?$AAo?$AAl?$AAs?$AA?2?$AAc?$AAr?$AAt?$AA?2?$AAf?$AAp?$AAw?$AA3?$AA2?$AA?2?$AAi?$AAn?$AAc?$AAl?$AAu?$AAd?$AAe?$AA?2@ 0000000140031ce0     LIBCMTD:strgtold.obj
 0002:00006d40       ??_C@_1BO@IHLJHOPI@?$AA_?$AA_?$AAs?$AAt?$AAr?$AAg?$AAt?$AAo?$AAl?$AAd?$AA1?$AA2?$AA_?$AAl?$AA?$AA@ 0000000140031d40     LIBCMTD:strgtold.obj
 0002:00006d60       ??_C@_1EO@IKHIJFCK@?$AAf?$AA?3?$AA?2?$AAd?$AAd?$AA?2?$AAv?$AAc?$AAt?$AAo?$AAo?$AAl?$AAs?$AA?2?$AAc?$AAr?$AAt?$AA?2?$AAf?$AAp?$AAw?$AA3?$AA2?$AA?2?$AAc?$AAo?$AAn?$AAv?$AA?2?$AAx?$AA1?$AA0@ 0000000140031d60     LIBCMTD:x10fout.obj
 0002:00006db0       ??_C@_1BI@ELMAAFLN@?$AA$?$AAI?$AA1?$AA0?$AA_?$AAO?$AAU?$AAT?$AAP?$AAU?$AAT?$AA?$AA@ 0000000140031db0     LIBCMTD:x10fout.obj
 0002:00006dd0       ??_C@_1EG@CDDBFNOB@?$AAs?$AAt?$AAr?$AAc?$AAp?$AAy?$AA_?$AAs?$AA?$CI?$AAf?$AAo?$AAs?$AA?9?$AA?$DO?$AAm?$AAa?$AAn?$AA?0?$AA?5?$AA2?$AA1?$AA?$CL?$AA1?$AA?0?$AA?5?$AA?$CC?$AA1?$AA?$CD?$AAS?$AAN?$AAA?$AAN@ 0000000140031dd0     LIBCMTD:x10fout.obj
 0002:00006e18       ??_C@_06PGGFOGJG@1?$CDSNAN?$AA@ 0000000140031e18     LIBCMTD:x10fout.obj
 0002:00006e20       ??_C@_1EE@MADEBIHF@?$AAs?$AAt?$AAr?$AAc?$AAp?$AAy?$AA_?$AAs?$AA?$CI?$AAf?$AAo?$AAs?$AA?9?$AA?$DO?$AAm?$AAa?$AAn?$AA?0?$AA?5?$AA2?$AA1?$AA?$CL?$AA1?$AA?0?$AA?5?$AA?$CC?$AA1?$AA?$CD?$AAI?$AAN?$AAD?$AA?$CC@ 0000000140031e20     LIBCMTD:x10fout.obj
 0002:00006e64       ??_C@_05PHHOCPM@1?$CDIND?$AA@ 0000000140031e64     LIBCMTD:x10fout.obj
 0002:00006e70       ??_C@_1EE@ICBBBPAI@?$AAs?$AAt?$AAr?$AAc?$AAp?$AAy?$AA_?$AAs?$AA?$CI?$AAf?$AAo?$AAs?$AA?9?$AA?$DO?$AAm?$AAa?$AAn?$AA?0?$AA?5?$AA2?$AA1?$AA?$CL?$AA1?$AA?0?$AA?5?$AA?$CC?$AA1?$AA?$CD?$AAI?$AAN?$AAF?$AA?$CC@ 0000000140031e70     LIBCMTD:x10fout.obj
 0002:00006eb4       ??_C@_05DNEBIAHO@1?$CDINF?$AA@ 0000000140031eb4     LIBCMTD:x10fout.obj
 0002:00006ec0       ??_C@_1EG@MCFPJJEM@?$AAs?$AAt?$AAr?$AAc?$AAp?$AAy?$AA_?$AAs?$AA?$CI?$AAf?$AAo?$AAs?$AA?9?$AA?$DO?$AAm?$AAa?$AAn?$AA?0?$AA?5?$AA2?$AA1?$AA?$CL?$AA1?$AA?0?$AA?5?$AA?$CC?$AA1?$AA?$CD?$AAQ?$AAN?$AAA?$AAN@ 0000000140031ec0     LIBCMTD:x10fout.obj
 0002:00006f08       ??_C@_06IMKFLFPG@1?$CDQNAN?$AA@ 0000000140031f08     LIBCMTD:x10fout.obj
 0002:00006f10       LcidToLocaleNameTable      0000000140031f10     LIBCMTD:winapinls.obj
 0002:00007d50       LocaleNameToIndexTable     0000000140032d50     LIBCMTD:winapinls.obj
 0002:00008b90       ??_C@_15EMKDOKLE@?$AAa?$AAr?$AA?$AA@ 0000000140033b90     LIBCMTD:winapinls.obj
 0002:00008b98       ??_C@_15KNPADPLH@?$AAb?$AAg?$AA?$AA@ 0000000140033b98     LIBCMTD:winapinls.obj
 0002:00008ba0       ??_C@_15EDMHLDMO@?$AAc?$AAa?$AA?$AA@ 0000000140033ba0     LIBCMTD:winapinls.obj
 0002:00008ba8       ??_C@_1O@BPEAJADD@?$AAz?$AAh?$AA?9?$AAC?$AAH?$AAS?$AA?$AA@ 0000000140033ba8     LIBCMTD:winapinls.obj
 0002:00008bb8       ??_C@_15LJNHCMNK@?$AAc?$AAs?$AA?$AA@ 0000000140033bb8     LIBCMTD:winapinls.obj
 0002:00008bc0       ??_C@_15FOMCIDHG@?$AAd?$AAa?$AA?$AA@ 0000000140033bc0     LIBCMTD:winapinls.obj
 0002:00008bc8       ??_C@_15NBKABECB@?$AAd?$AAe?$AA?$AA@ 0000000140033bc8     LIBCMTD:winapinls.obj
 0002:00008bd0       ??_C@_15GHPEIIAO@?$AAe?$AAl?$AA?$AA@ 0000000140033bd0     LIBCMTD:winapinls.obj
 0002:00008bd8       ??_C@_15MNPNEAIF@?$AAe?$AAn?$AA?$AA@ 0000000140033bd8     LIBCMTD:winapinls.obj
 0002:00008be0       ??_C@_15GPIOMPMH@?$AAe?$AAs?$AA?$AA@ 0000000140033be0     LIBCMTD:winapinls.obj
 0002:00008be8       ??_C@_15NGLOAKJC@?$AAf?$AAi?$AA?$AA@ 0000000140033be8     LIBCMTD:winapinls.obj
 0002:00008bf0       ??_C@_15FBKGNKAM@?$AAf?$AAr?$AA?$AA@ 0000000140033bf0     LIBCMTD:winapinls.obj
 0002:00008bf8       ??_C@_15KGGCNEFK@?$AAh?$AAe?$AA?$AA@ 0000000140033bf8     LIBCMTD:winapinls.obj
 0002:00008c00       ??_C@_15PGHLIDMF@?$AAh?$AAu?$AA?$AA@ 0000000140033c00     LIBCMTD:winapinls.obj
 0002:00008c08       ??_C@_15BIEMAPLM@?$AAi?$AAs?$AA?$AA@ 0000000140033c08     LIBCMTD:winapinls.obj
 0002:00008c10       ??_C@_15IFJLDHAF@?$AAi?$AAt?$AA?$AA@ 0000000140033c10     LIBCMTD:winapinls.obj
 0002:00008c18       ??_C@_15GEMIOCAG@?$AAj?$AAa?$AA?$AA@ 0000000140033c18     LIBCMTD:winapinls.obj
 0002:00008c20       ??_C@_15EPELEGJA@?$AAk?$AAo?$AA?$AA@ 0000000140033c20     LIBCMTD:winapinls.obj
 0002:00008c28       ??_C@_15NDDHIMN@?$AAn?$AAl?$AA?$AA@ 0000000140033c28     LIBCMTD:winapinls.obj
 0002:00008c30       ??_C@_15BPIGNHCD@?$AAn?$AAo?$AA?$AA@ 0000000140033c30     LIBCMTD:winapinls.obj
 0002:00008c38       ??_C@_15DEOPBLCG@?$AAp?$AAl?$AA?$AA@ 0000000140033c38     LIBCMTD:winapinls.obj
 0002:00008c40       ??_C@_15KBECGEFG@?$AAp?$AAt?$AA?$AA@ 0000000140033c40     LIBCMTD:winapinls.obj
 0002:00008c48       ??_C@_15GLJCBFMD@?$AAr?$AAo?$AA?$AA@ 0000000140033c48     LIBCMTD:winapinls.obj
 0002:00008c50       ??_C@_15FEDGKCDI@?$AAr?$AAu?$AA?$AA@ 0000000140033c50     LIBCMTD:winapinls.obj
 0002:00008c58       ??_C@_15GLKMLLHM@?$AAh?$AAr?$AA?$AA@ 0000000140033c58     LIBCMTD:winapinls.obj
 0002:00008c60       ??_C@_15CPKMFBDB@?$AAs?$AAk?$AA?$AA@ 0000000140033c60     LIBCMTD:winapinls.obj
 0002:00008c68       ??_C@_15BAAIOGMK@?$AAs?$AAq?$AA?$AA@ 0000000140033c68     LIBCMTD:winapinls.obj
 0002:00008c70       ??_C@_15INNPNOHD@?$AAs?$AAv?$AA?$AA@ 0000000140033c70     LIBCMTD:winapinls.obj
 0002:00008c78       ??_C@_15CABMMOGH@?$AAt?$AAh?$AA?$AA@ 0000000140033c78     LIBCMTD:winapinls.obj
 0002:00008c80       ??_C@_15BPLIHJJM@?$AAt?$AAr?$AA?$AA@ 0000000140033c80     LIBCMTD:winapinls.obj
 0002:00008c88       ??_C@_15NEOEKKDJ@?$AAu?$AAr?$AA?$AA@ 0000000140033c88     LIBCMTD:winapinls.obj
 0002:00008c90       ??_C@_15NFICGAJK@?$AAi?$AAd?$AA?$AA@ 0000000140033c90     LIBCMTD:winapinls.obj
 0002:00008c98       ??_C@_15PJPFLCCM@?$AAu?$AAk?$AA?$AA@ 0000000140033c98     LIBCMTD:winapinls.obj
 0002:00008ca0       ??_C@_15HPJPHDM@?$AAb?$AAe?$AA?$AA@ 0000000140033ca0     LIBCMTD:winapinls.obj
 0002:00008ca8       ??_C@_15LCHLGJII@?$AAs?$AAl?$AA?$AA@ 0000000140033ca8     LIBCMTD:winapinls.obj
 0002:00008cb0       ??_C@_15PCFJPHHO@?$AAe?$AAt?$AA?$AA@ 0000000140033cb0     LIBCMTD:winapinls.obj
 0002:00008cb8       ??_C@_15HPFPGODN@?$AAl?$AAv?$AA?$AA@ 0000000140033cb8     LIBCMTD:winapinls.obj
 0002:00008cc0       ??_C@_15NFFGKGLG@?$AAl?$AAt?$AA?$AA@ 0000000140033cc0     LIBCMTD:winapinls.obj
 0002:00008cc8       ??_C@_15BDAKCCHN@?$AAf?$AAa?$AA?$AA@ 0000000140033cc8     LIBCMTD:winapinls.obj
 0002:00008cd0       ??_C@_15NFGIAIAJ@?$AAv?$AAi?$AA?$AA@ 0000000140033cd0     LIBCMTD:winapinls.obj
 0002:00008cd8       ??_C@_15LMKNDMHN@?$AAh?$AAy?$AA?$AA@ 0000000140033cd8     LIBCMTD:winapinls.obj
 0002:00008ce0       ??_C@_15IJBHMCFL@?$AAa?$AAz?$AA?$AA@ 0000000140033ce0     LIBCMTD:winapinls.obj
 0002:00008ce8       ??_C@_15EKOFJABL@?$AAe?$AAu?$AA?$AA@ 0000000140033ce8     LIBCMTD:winapinls.obj
 0002:00008cf0       ??_C@_15BGHADCNK@?$AAm?$AAk?$AA?$AA@ 0000000140033cf0     LIBCMTD:winapinls.obj
 0002:00008cf8       ??_C@_15JDNICKHM@?$AAa?$AAf?$AA?$AA@ 0000000140033cf8     LIBCMTD:winapinls.obj
 0002:00008d00       ??_C@_15KPJEDBKD@?$AAk?$AAa?$AA?$AA@ 0000000140033d00     LIBCMTD:winapinls.obj
 0002:00008d08       ??_C@_15PDNFFFEO@?$AAf?$AAo?$AA?$AA@ 0000000140033d08     LIBCMTD:winapinls.obj
 0002:00008d10       ??_C@_15OMLEGLOC@?$AAh?$AAi?$AA?$AA@ 0000000140033d10     LIBCMTD:winapinls.obj
 0002:00008d18       ??_C@_15IDNNENKK@?$AAm?$AAs?$AA?$AA@ 0000000140033d18     LIBCMTD:winapinls.obj
 0002:00008d20       ??_C@_15MACJNBMH@?$AAk?$AAk?$AA?$AA@ 0000000140033d20     LIBCMTD:winapinls.obj
 0002:00008d28       ??_C@_15DKDJEOND@?$AAk?$AAy?$AA?$AA@ 0000000140033d28     LIBCMTD:winapinls.obj
 0002:00008d30       ??_C@_15DFGDLJBG@?$AAs?$AAw?$AA?$AA@ 0000000140033d30     LIBCMTD:winapinls.obj
 0002:00008d38       ??_C@_15BBFAICNG@?$AAu?$AAz?$AA?$AA@ 0000000140033d38     LIBCMTD:winapinls.obj
 0002:00008d40       ??_C@_15DKNDCGEA@?$AAt?$AAt?$AA?$AA@ 0000000140033d40     LIBCMTD:winapinls.obj
 0002:00008d48       ??_C@_15MGIFMDPL@?$AAp?$AAa?$AA?$AA@ 0000000140033d48     LIBCMTD:winapinls.obj
 0002:00008d50       ??_C@_15HCNDBBA@?$AAg?$AAu?$AA?$AA@ 0000000140033d50     LIBCMTD:winapinls.obj
 0002:00008d58       ??_C@_15FNBEIBON@?$AAt?$AAa?$AA?$AA@ 0000000140033d58     LIBCMTD:winapinls.obj
 0002:00008d60       ??_C@_15NCHGBGLK@?$AAt?$AAe?$AA?$AA@ 0000000140033d60     LIBCMTD:winapinls.obj
 0002:00008d68       ??_C@_15PHPHCBPF@?$AAk?$AAn?$AA?$AA@ 0000000140033d68     LIBCMTD:winapinls.obj
 0002:00008d70       ??_C@_15DLGBCKMP@?$AAm?$AAr?$AA?$AA@ 0000000140033d70     LIBCMTD:winapinls.obj
 0002:00008d78       ??_C@_15EABBLBFF@?$AAs?$AAa?$AA?$AA@ 0000000140033d78     LIBCMTD:winapinls.obj
 0002:00008d80       ??_C@_15CBKOMCOI@?$AAm?$AAn?$AA?$AA@ 0000000140033d80     LIBCMTD:winapinls.obj
 0002:00008d88       ??_C@_15CKDMCJAF@?$AAg?$AAl?$AA?$AA@ 0000000140033d88     LIBCMTD:winapinls.obj
 0002:00008d90       ??_C@_17CNJFBPG@?$AAk?$AAo?$AAk?$AA?$AA@ 0000000140033d90     LIBCMTD:winapinls.obj
 0002:00008d98       ??_C@_17FFBJICPL@?$AAs?$AAy?$AAr?$AA?$AA@ 0000000140033d98     LIBCMTD:winapinls.obj
 0002:00008da0       ??_C@_17KPNDCPAF@?$AAd?$AAi?$AAv?$AA?$AA@ 0000000140033da0     LIBCMTD:winapinls.obj
 0002:00008da8       ??_C@_1M@OKAHONE@?$AAa?$AAr?$AA?9?$AAS?$AAA?$AA?$AA@ 0000000140033da8     LIBCMTD:winapinls.obj
 0002:00008db8       ??_C@_1M@FFFIGIGK@?$AAb?$AAg?$AA?9?$AAB?$AAG?$AA?$AA@ 0000000140033db8     LIBCMTD:winapinls.obj
 0002:00008dc8       ??_C@_1M@BJNKEDC@?$AAc?$AAa?$AA?9?$AAE?$AAS?$AA?$AA@ 0000000140033dc8     LIBCMTD:winapinls.obj
 0002:00008dd8       ??_C@_1M@IJJHFJHA@?$AAc?$AAs?$AA?9?$AAC?$AAZ?$AA?$AA@ 0000000140033dd8     LIBCMTD:winapinls.obj
 0002:00008de8       ??_C@_1M@CLPEOBGI@?$AAd?$AAa?$AA?9?$AAD?$AAK?$AA?$AA@ 0000000140033de8     LIBCMTD:winapinls.obj
 0002:00008df8       ??_C@_1M@MCMADGCB@?$AAd?$AAe?$AA?9?$AAD?$AAE?$AA?$AA@ 0000000140033df8     LIBCMTD:winapinls.obj
 0002:00008e08       ??_C@_1M@OOCKEMAM@?$AAe?$AAl?$AA?9?$AAG?$AAR?$AA?$AA@ 0000000140033e08     LIBCMTD:winapinls.obj
 0002:00008e18       ??_C@_1M@DDNJFGID@?$AAf?$AAi?$AA?9?$AAF?$AAI?$AA?$AA@ 0000000140033e18     LIBCMTD:winapinls.obj
 0002:00008e28       ??_C@_1M@GLIPPMAC@?$AAf?$AAr?$AA?9?$AAF?$AAR?$AA?$AA@ 0000000140033e28     LIBCMTD:winapinls.obj
 0002:00008e38       ??_C@_1M@GFMCHPE@?$AAh?$AAe?$AA?9?$AAI?$AAL?$AA?$AA@ 0000000140033e38     LIBCMTD:winapinls.obj
 0002:00008e48       ??_C@_1M@MHLPGNKM@?$AAh?$AAu?$AA?9?$AAH?$AAU?$AA?$AA@ 0000000140033e48     LIBCMTD:winapinls.obj
 0002:00008e58       ??_C@_1M@LPDDNNPN@?$AAi?$AAs?$AA?9?$AAI?$AAS?$AA?$AA@ 0000000140033e58     LIBCMTD:winapinls.obj
 0002:00008e68       ??_C@_1M@MADIPODN@?$AAi?$AAt?$AA?9?$AAI?$AAT?$AA?$AA@ 0000000140033e68     LIBCMTD:winapinls.obj
 0002:00008e78       ??_C@_1M@IHBJJGG@?$AAn?$AAl?$AA?9?$AAN?$AAL?$AA?$AA@ 0000000140033e78     LIBCMTD:winapinls.obj
 0002:00008e88       ??_C@_1M@EANAGDL@?$AAn?$AAb?$AA?9?$AAN?$AAO?$AA?$AA@ 0000000140033e88     LIBCMTD:winapinls.obj
 0002:00008e98       ??_C@_1M@NEIEMEGP@?$AAp?$AAl?$AA?9?$AAP?$AAL?$AA?$AA@ 0000000140033e98     LIBCMTD:winapinls.obj
 0002:00008ea8       ??_C@_1M@BOCFIGEP@?$AAp?$AAt?$AA?9?$AAB?$AAR?$AA?$AA@ 0000000140033ea8     LIBCMTD:winapinls.obj
 0002:00008eb8       ??_C@_1M@IMPFOPBG@?$AAr?$AAo?$AA?9?$AAR?$AAO?$AA?$AA@ 0000000140033eb8     LIBCMTD:winapinls.obj
 0002:00008ec8       ??_C@_1M@IDNNEJMM@?$AAr?$AAu?$AA?9?$AAR?$AAU?$AA?$AA@ 0000000140033ec8     LIBCMTD:winapinls.obj
 0002:00008ed8       ??_C@_1M@LILEEOGM@?$AAh?$AAr?$AA?9?$AAH?$AAR?$AA?$AA@ 0000000140033ed8     LIBCMTD:winapinls.obj
 0002:00008ee8       ??_C@_1M@FKIFEHPB@?$AAs?$AAk?$AA?9?$AAS?$AAK?$AA?$AA@ 0000000140033ee8     LIBCMTD:winapinls.obj
 0002:00008ef8       ??_C@_1M@LJMAMNPJ@?$AAs?$AAq?$AA?9?$AAA?$AAL?$AA?$AA@ 0000000140033ef8     LIBCMTD:winapinls.obj
 0002:00008f08       ??_C@_1M@GIAKDKJK@?$AAs?$AAv?$AA?9?$AAS?$AAE?$AA?$AA@ 0000000140033f08     LIBCMTD:winapinls.obj
 0002:00008f18       ??_C@_1M@MKJKIKCL@?$AAt?$AAh?$AA?9?$AAT?$AAH?$AA?$AA@ 0000000140033f18     LIBCMTD:winapinls.obj
 0002:00008f28       ??_C@_1M@MFLCCMPB@?$AAt?$AAr?$AA?9?$AAT?$AAR?$AA?$AA@ 0000000140033f28     LIBCMTD:winapinls.obj
 0002:00008f38       ??_C@_1M@OIJHDKJN@?$AAu?$AAr?$AA?9?$AAP?$AAK?$AA?$AA@ 0000000140033f38     LIBCMTD:winapinls.obj
 0002:00008f48       ??_C@_1M@LHIPCIEK@?$AAi?$AAd?$AA?9?$AAI?$AAD?$AA?$AA@ 0000000140033f48     LIBCMTD:winapinls.obj
 0002:00008f58       ??_C@_1M@MFMOBGI@?$AAu?$AAk?$AA?9?$AAU?$AAA?$AA?$AA@ 0000000140033f58     LIBCMTD:winapinls.obj
 0002:00008f68       ??_C@_1M@OBGLJIPL@?$AAb?$AAe?$AA?9?$AAB?$AAY?$AA?$AA@ 0000000140033f68     LIBCMTD:winapinls.obj
 0002:00008f78       ??_C@_1M@BCFAJEAD@?$AAs?$AAl?$AA?9?$AAS?$AAI?$AA?$AA@ 0000000140033f78     LIBCMTD:winapinls.obj
 0002:00008f88       ??_C@_1M@FKFFEDDN@?$AAe?$AAt?$AA?9?$AAE?$AAE?$AA?$AA@ 0000000140033f88     LIBCMTD:winapinls.obj
 0002:00008f98       ??_C@_1M@KGKKAACI@?$AAl?$AAv?$AA?9?$AAL?$AAV?$AA?$AA@ 0000000140033f98     LIBCMTD:winapinls.obj
 0002:00008fa8       ??_C@_1M@IFGBIJO@?$AAl?$AAt?$AA?9?$AAL?$AAT?$AA?$AA@ 0000000140033fa8     LIBCMTD:winapinls.obj
 0002:00008fb8       ??_C@_1M@FGEAHEDM@?$AAf?$AAa?$AA?9?$AAI?$AAR?$AA?$AA@ 0000000140033fb8     LIBCMTD:winapinls.obj
 0002:00008fc8       ??_C@_1M@KBMAIBFN@?$AAv?$AAi?$AA?9?$AAV?$AAN?$AA?$AA@ 0000000140033fc8     LIBCMTD:winapinls.obj
 0002:00008fd8       ??_C@_1M@GPCBKDJK@?$AAh?$AAy?$AA?9?$AAA?$AAM?$AA?$AA@ 0000000140033fd8     LIBCMTD:winapinls.obj
 0002:00008fe8       ??_C@_1BG@BECMDDJB@?$AAa?$AAz?$AA?9?$AAA?$AAZ?$AA?9?$AAL?$AAa?$AAt?$AAn?$AA?$AA@ 0000000140033fe8     LIBCMTD:winapinls.obj
 0002:00009000       ??_C@_1M@MAOFCAEA@?$AAe?$AAu?$AA?9?$AAE?$AAS?$AA?$AA@ 0000000140034000     LIBCMTD:winapinls.obj
 0002:00009010       ??_C@_1M@IGHABKPI@?$AAm?$AAk?$AA?9?$AAM?$AAK?$AA?$AA@ 0000000140034010     LIBCMTD:winapinls.obj
 0002:00009020       ??_C@_1M@IAIGNEJG@?$AAt?$AAn?$AA?9?$AAZ?$AAA?$AA?$AA@ 0000000140034020     LIBCMTD:winapinls.obj
 0002:00009030       ??_C@_1M@IIJCOJFA@?$AAx?$AAh?$AA?9?$AAZ?$AAA?$AA?$AA@ 0000000140034030     LIBCMTD:winapinls.obj
 0002:00009040       ??_C@_1M@LGPJHNJH@?$AAz?$AAu?$AA?9?$AAZ?$AAA?$AA?$AA@ 0000000140034040     LIBCMTD:winapinls.obj
 0002:00009050       ??_C@_1M@HOKAOIO@?$AAa?$AAf?$AA?9?$AAZ?$AAA?$AA?$AA@ 0000000140034050     LIBCMTD:winapinls.obj
 0002:00009060       ??_C@_1M@DPCLHLIE@?$AAk?$AAa?$AA?9?$AAG?$AAE?$AA?$AA@ 0000000140034060     LIBCMTD:winapinls.obj
 0002:00009070       ??_C@_1M@BLKMHJBI@?$AAf?$AAo?$AA?9?$AAF?$AAO?$AA?$AA@ 0000000140034070     LIBCMTD:winapinls.obj
 0002:00009080       ??_C@_1M@LGGJAPPB@?$AAh?$AAi?$AA?9?$AAI?$AAN?$AA?$AA@ 0000000140034080     LIBCMTD:winapinls.obj
 0002:00009090       ??_C@_1M@FIKPIHFE@?$AAm?$AAt?$AA?9?$AAM?$AAT?$AA?$AA@ 0000000140034090     LIBCMTD:winapinls.obj
 0002:000090a0       ??_C@_1M@HEGGPBFA@?$AAs?$AAe?$AA?9?$AAN?$AAO?$AA?$AA@ 00000001400340a0     LIBCMTD:winapinls.obj
 0002:000090b0       ??_C@_1M@EIBJEEPA@?$AAm?$AAs?$AA?9?$AAM?$AAY?$AA?$AA@ 00000001400340b0     LIBCMTD:winapinls.obj
 0002:000090c0       ??_C@_1M@FHLBGMPP@?$AAk?$AAk?$AA?9?$AAK?$AAZ?$AA?$AA@ 00000001400340c0     LIBCMTD:winapinls.obj
 0002:000090d0       ??_C@_1M@NGJJLCGI@?$AAk?$AAy?$AA?9?$AAK?$AAG?$AA?$AA@ 00000001400340d0     LIBCMTD:winapinls.obj
 0002:000090e0       ??_C@_1M@GIENNBFC@?$AAs?$AAw?$AA?9?$AAK?$AAE?$AA?$AA@ 00000001400340e0     LIBCMTD:winapinls.obj
 0002:000090f0       ??_C@_1BG@NDGMJIMJ@?$AAu?$AAz?$AA?9?$AAU?$AAZ?$AA?9?$AAL?$AAa?$AAt?$AAn?$AA?$AA@ 00000001400340f0     LIBCMTD:winapinls.obj
 0002:00009108       ??_C@_1M@IDCCIHBC@?$AAt?$AAt?$AA?9?$AAR?$AAU?$AA?$AA@ 0000000140034108     LIBCMTD:winapinls.obj
 0002:00009118       ??_C@_1M@LOICPMOJ@?$AAb?$AAn?$AA?9?$AAI?$AAN?$AA?$AA@ 0000000140034118     LIBCMTD:winapinls.obj
 0002:00009128       ??_C@_1M@KPKKNEAH@?$AAp?$AAa?$AA?9?$AAI?$AAN?$AA?$AA@ 0000000140034128     LIBCMTD:winapinls.obj
 0002:00009138       ??_C@_1M@PJGPPBOG@?$AAg?$AAu?$AA?9?$AAI?$AAN?$AA?$AA@ 0000000140034138     LIBCMTD:winapinls.obj
 0002:00009148       ??_C@_1M@KMKMOPHI@?$AAt?$AAa?$AA?9?$AAI?$AAN?$AA?$AA@ 0000000140034148     LIBCMTD:winapinls.obj
 0002:00009158       ??_C@_1M@KFEHEPAC@?$AAt?$AAe?$AA?9?$AAI?$AAN?$AA?$AA@ 0000000140034158     LIBCMTD:winapinls.obj
 0002:00009168       ??_C@_1M@CDCLMGHI@?$AAk?$AAn?$AA?9?$AAI?$AAN?$AA?$AA@ 0000000140034168     LIBCMTD:winapinls.obj
 0002:00009178       ??_C@_1M@MIODLDKF@?$AAm?$AAl?$AA?9?$AAI?$AAN?$AA?$AA@ 0000000140034178     LIBCMTD:winapinls.obj
 0002:00009188       ??_C@_1M@PBIEACPO@?$AAm?$AAr?$AA?9?$AAI?$AAN?$AA?$AA@ 0000000140034188     LIBCMTD:winapinls.obj
 0002:00009198       ??_C@_1M@NIDEAGPH@?$AAs?$AAa?$AA?9?$AAI?$AAN?$AA?$AA@ 0000000140034198     LIBCMTD:winapinls.obj
 0002:000091a8       ??_C@_1M@FHIHCBIO@?$AAm?$AAn?$AA?9?$AAM?$AAN?$AA?$AA@ 00000001400341a8     LIBCMTD:winapinls.obj
 0002:000091b8       ??_C@_1M@JAIJPENP@?$AAc?$AAy?$AA?9?$AAG?$AAB?$AA?$AA@ 00000001400341b8     LIBCMTD:winapinls.obj
 0002:000091c8       ??_C@_1M@PHGFBEPN@?$AAg?$AAl?$AA?9?$AAE?$AAS?$AA?$AA@ 00000001400341c8     LIBCMTD:winapinls.obj
 0002:000091d8       ??_C@_1O@KPIPDNCP@?$AAk?$AAo?$AAk?$AA?9?$AAI?$AAN?$AA?$AA@ 00000001400341d8     LIBCMTD:winapinls.obj
 0002:000091e8       ??_C@_1O@KNHJLDJA@?$AAs?$AAy?$AAr?$AA?9?$AAS?$AAY?$AA?$AA@ 00000001400341e8     LIBCMTD:winapinls.obj
 0002:000091f8       ??_C@_1O@MKEKBLAH@?$AAd?$AAi?$AAv?$AA?9?$AAM?$AAV?$AA?$AA@ 00000001400341f8     LIBCMTD:winapinls.obj
 0002:00009208       ??_C@_1O@OHDCKDDF@?$AAq?$AAu?$AAz?$AA?9?$AAB?$AAO?$AA?$AA@ 0000000140034208     LIBCMTD:winapinls.obj
 0002:00009218       ??_C@_1M@LEPJNLFD@?$AAn?$AAs?$AA?9?$AAZ?$AAA?$AA?$AA@ 0000000140034218     LIBCMTD:winapinls.obj
 0002:00009228       ??_C@_1M@OMLEIIJB@?$AAm?$AAi?$AA?9?$AAN?$AAZ?$AA?$AA@ 0000000140034228     LIBCMTD:winapinls.obj
 0002:00009238       ??_C@_1M@PMPEAILG@?$AAa?$AAr?$AA?9?$AAI?$AAQ?$AA?$AA@ 0000000140034238     LIBCMTD:winapinls.obj
 0002:00009248       ??_C@_1M@CNKPNOEE@?$AAd?$AAe?$AA?9?$AAC?$AAH?$AA?$AA@ 0000000140034248     LIBCMTD:winapinls.obj
 0002:00009258       ??_C@_1M@LKMGMLKO@?$AAe?$AAn?$AA?9?$AAG?$AAB?$AA?$AA@ 0000000140034258     LIBCMTD:winapinls.obj
 0002:00009268       ??_C@_1M@PGKJFFGL@?$AAe?$AAs?$AA?9?$AAM?$AAX?$AA?$AA@ 0000000140034268     LIBCMTD:winapinls.obj
 0002:00009278       ??_C@_1M@DNNANBDC@?$AAf?$AAr?$AA?9?$AAB?$AAE?$AA?$AA@ 0000000140034278     LIBCMTD:winapinls.obj
 0002:00009288       ??_C@_1M@HLGMDFHM@?$AAi?$AAt?$AA?9?$AAC?$AAH?$AA?$AA@ 0000000140034288     LIBCMTD:winapinls.obj
 0002:00009298       ??_C@_1M@CLLBGJH@?$AAn?$AAl?$AA?9?$AAB?$AAE?$AA?$AA@ 0000000140034298     LIBCMTD:winapinls.obj
 0002:000092a8       ??_C@_1M@BODBOGLF@?$AAn?$AAn?$AA?9?$AAN?$AAO?$AA?$AA@ 00000001400342a8     LIBCMTD:winapinls.obj
 0002:000092b8       ??_C@_1M@HFFAHKAD@?$AAp?$AAt?$AA?9?$AAP?$AAT?$AA?$AA@ 00000001400342b8     LIBCMTD:winapinls.obj
 0002:000092c8       ??_C@_1BG@LNOAKHIE@?$AAs?$AAr?$AA?9?$AAS?$AAP?$AA?9?$AAL?$AAa?$AAt?$AAn?$AA?$AA@ 00000001400342c8     LIBCMTD:winapinls.obj
 0002:000092e0       ??_C@_1M@HBMHBGAK@?$AAs?$AAv?$AA?9?$AAF?$AAI?$AA?$AA@ 00000001400342e0     LIBCMTD:winapinls.obj
 0002:000092f0       ??_C@_1BG@DGCJGJBE@?$AAa?$AAz?$AA?9?$AAA?$AAZ?$AA?9?$AAC?$AAy?$AAr?$AAl?$AA?$AA@ 00000001400342f0     LIBCMTD:winapinls.obj
 0002:00009308       ??_C@_1M@KEJDAAHB@?$AAs?$AAe?$AA?9?$AAS?$AAE?$AA?$AA@ 0000000140034308     LIBCMTD:winapinls.obj
 0002:00009318       ??_C@_1M@HEIBJJAD@?$AAm?$AAs?$AA?9?$AAB?$AAN?$AA?$AA@ 0000000140034318     LIBCMTD:winapinls.obj
 0002:00009328       ??_C@_1BG@PBGJMCEM@?$AAu?$AAz?$AA?9?$AAU?$AAZ?$AA?9?$AAC?$AAy?$AAr?$AAl?$AA?$AA@ 0000000140034328     LIBCMTD:winapinls.obj
 0002:00009340       ??_C@_1O@LAOBCMDF@?$AAq?$AAu?$AAz?$AA?9?$AAE?$AAC?$AA?$AA@ 0000000140034340     LIBCMTD:winapinls.obj
 0002:00009350       ??_C@_1M@POEEMAIO@?$AAa?$AAr?$AA?9?$AAE?$AAG?$AA?$AA@ 0000000140034350     LIBCMTD:winapinls.obj
 0002:00009360       ??_C@_1M@EFAKDEDL@?$AAz?$AAh?$AA?9?$AAH?$AAK?$AA?$AA@ 0000000140034360     LIBCMTD:winapinls.obj
 0002:00009370       ??_C@_1M@HKKIJHGI@?$AAd?$AAe?$AA?9?$AAA?$AAT?$AA?$AA@ 0000000140034370     LIBCMTD:winapinls.obj
 0002:00009380       ??_C@_1M@KBFBEHJF@?$AAe?$AAn?$AA?9?$AAA?$AAU?$AA?$AA@ 0000000140034380     LIBCMTD:winapinls.obj
 0002:00009390       ??_C@_1M@MNPLFAAH@?$AAe?$AAs?$AA?9?$AAE?$AAS?$AA?$AA@ 0000000140034390     LIBCMTD:winapinls.obj
 0002:000093a0       ??_C@_1M@HJOOJFMA@?$AAf?$AAr?$AA?9?$AAC?$AAA?$AA?$AA@ 00000001400343a0     LIBCMTD:winapinls.obj
 0002:000093b0       ??_C@_1BG@JPOFPNAB@?$AAs?$AAr?$AA?9?$AAS?$AAP?$AA?9?$AAC?$AAy?$AAr?$AAl?$AA?$AA@ 00000001400343b0     LIBCMTD:winapinls.obj
 0002:000093c8       ??_C@_1M@LNFOCMOB@?$AAs?$AAe?$AA?9?$AAF?$AAI?$AA?$AA@ 00000001400343c8     LIBCMTD:winapinls.obj
 0002:000093d8       ??_C@_1O@MGJBOAMB@?$AAq?$AAu?$AAz?$AA?9?$AAP?$AAE?$AA?$AA@ 00000001400343d8     LIBCMTD:winapinls.obj
 0002:000093e8       ??_C@_1M@GJINLBOK@?$AAa?$AAr?$AA?9?$AAL?$AAY?$AA?$AA@ 00000001400343e8     LIBCMTD:winapinls.obj
 0002:000093f8       ??_C@_1M@GGMNHJNL@?$AAz?$AAh?$AA?9?$AAS?$AAG?$AA?$AA@ 00000001400343f8     LIBCMTD:winapinls.obj
 0002:00009408       ??_C@_1M@HOIKODND@?$AAd?$AAe?$AA?9?$AAL?$AAU?$AA?$AA@ 0000000140034408     LIBCMTD:winapinls.obj
 0002:00009418       ??_C@_1M@DDOCCGFG@?$AAe?$AAn?$AA?9?$AAC?$AAA?$AA?$AA@ 0000000140034418     LIBCMTD:winapinls.obj
 0002:00009428       ??_C@_1M@BNOEMJLF@?$AAe?$AAs?$AA?9?$AAG?$AAT?$AA?$AA@ 0000000140034428     LIBCMTD:winapinls.obj
 0002:00009438       ??_C@_1M@EOGNKEK@?$AAf?$AAr?$AA?9?$AAC?$AAH?$AA?$AA@ 0000000140034438     LIBCMTD:winapinls.obj
 0002:00009448       ??_C@_1M@FLIDJFHL@?$AAh?$AAr?$AA?9?$AAB?$AAA?$AA?$AA@ 0000000140034448     LIBCMTD:winapinls.obj
 0002:00009458       ??_C@_1O@FMCELNAJ@?$AAs?$AAm?$AAj?$AA?9?$AAN?$AAO?$AA?$AA@ 0000000140034458     LIBCMTD:winapinls.obj
 0002:00009468       ??_C@_1M@JHGLJMGJ@?$AAa?$AAr?$AA?9?$AAD?$AAZ?$AA?$AA@ 0000000140034468     LIBCMTD:winapinls.obj
 0002:00009478       ??_C@_1M@JKKFDCNP@?$AAz?$AAh?$AA?9?$AAM?$AAO?$AA?$AA@ 0000000140034478     LIBCMTD:winapinls.obj
 0002:00009488       ??_C@_1M@GEEFALPE@?$AAd?$AAe?$AA?9?$AAL?$AAI?$AA?$AA@ 0000000140034488     LIBCMTD:winapinls.obj
 0002:00009498       ??_C@_1M@IGEOFBG@?$AAe?$AAn?$AA?9?$AAN?$AAZ?$AA?$AA@ 0000000140034498     LIBCMTD:winapinls.obj
 0002:000094a8       ??_C@_1M@KDBONEHP@?$AAe?$AAs?$AA?9?$AAC?$AAR?$AA?$AA@ 00000001400344a8     LIBCMTD:winapinls.obj
 0002:000094b8       ??_C@_1M@FHMDOHNN@?$AAf?$AAr?$AA?9?$AAL?$AAU?$AA?$AA@ 00000001400344b8     LIBCMTD:winapinls.obj
 0002:000094c8       ??_C@_1BG@NFKKMAFG@?$AAb?$AAs?$AA?9?$AAB?$AAA?$AA?9?$AAL?$AAa?$AAt?$AAn?$AA?$AA@ 00000001400344c8     LIBCMTD:winapinls.obj
 0002:000094e0       ??_C@_1O@IMNBEMCI@?$AAs?$AAm?$AAj?$AA?9?$AAS?$AAE?$AA?$AA@ 00000001400344e0     LIBCMTD:winapinls.obj
 0002:000094f0       ??_C@_1M@DHHMBNDP@?$AAa?$AAr?$AA?9?$AAM?$AAA?$AA?$AA@ 00000001400344f0     LIBCMTD:winapinls.obj
 0002:00009500       ??_C@_1M@BNBLJCGH@?$AAe?$AAn?$AA?9?$AAI?$AAE?$AA?$AA@ 0000000140034500     LIBCMTD:winapinls.obj
 0002:00009510       ??_C@_1M@GEPAFMDL@?$AAe?$AAs?$AA?9?$AAP?$AAA?$AA?$AA@ 0000000140034510     LIBCMTD:winapinls.obj
 0002:00009520       ??_C@_1M@OJONDMDL@?$AAf?$AAr?$AA?9?$AAM?$AAC?$AA?$AA@ 0000000140034520     LIBCMTD:winapinls.obj
 0002:00009530       ??_C@_1BG@OBCNFJB@?$AAs?$AAr?$AA?9?$AAB?$AAA?$AA?9?$AAL?$AAa?$AAt?$AAn?$AA?$AA@ 0000000140034530     LIBCMTD:winapinls.obj
 0002:00009548       ??_C@_1O@KEMEEGPO@?$AAs?$AAm?$AAa?$AA?9?$AAN?$AAO?$AA?$AA@ 0000000140034548     LIBCMTD:winapinls.obj
 0002:00009558       ??_C@_1M@ELMGFODK@?$AAa?$AAr?$AA?9?$AAT?$AAN?$AA?$AA@ 0000000140034558     LIBCMTD:winapinls.obj
 0002:00009568       ??_C@_1M@BHDLHFAF@?$AAe?$AAn?$AA?9?$AAZ?$AAA?$AA?$AA@ 0000000140034568     LIBCMTD:winapinls.obj
 0002:00009578       ??_C@_1M@BMGIGLIF@?$AAe?$AAs?$AA?9?$AAD?$AAO?$AA?$AA@ 0000000140034578     LIBCMTD:winapinls.obj
 0002:00009588       ??_C@_1BG@CMBHIPBE@?$AAs?$AAr?$AA?9?$AAB?$AAA?$AA?9?$AAC?$AAy?$AAr?$AAl?$AA?$AA@ 0000000140034588     LIBCMTD:winapinls.obj
 0002:000095a0       ??_C@_1O@HEDBLHNP@?$AAs?$AAm?$AAa?$AA?9?$AAS?$AAE?$AA?$AA@ 00000001400345a0     LIBCMTD:winapinls.obj
 0002:000095b0       ??_C@_1M@DAGCADIM@?$AAa?$AAr?$AA?9?$AAO?$AAM?$AA?$AA@ 00000001400345b0     LIBCMTD:winapinls.obj
 0002:000095c0       ??_C@_1M@FODLMICG@?$AAe?$AAn?$AA?9?$AAJ?$AAM?$AA?$AA@ 00000001400345c0     LIBCMTD:winapinls.obj
 0002:000095d0       ??_C@_1M@DNMLCIHB@?$AAe?$AAs?$AA?9?$AAV?$AAE?$AA?$AA@ 00000001400345d0     LIBCMTD:winapinls.obj
 0002:000095e0       ??_C@_1O@EOKHMKJK@?$AAs?$AAm?$AAs?$AA?9?$AAF?$AAI?$AA?$AA@ 00000001400345e0     LIBCMTD:winapinls.obj
 0002:000095f0       ??_C@_1M@CAFJMKOF@?$AAa?$AAr?$AA?9?$AAY?$AAE?$AA?$AA@ 00000001400345f0     LIBCMTD:winapinls.obj
 0002:00009600       ??_C@_1M@CBFHIJLI@?$AAe?$AAn?$AA?9?$AAC?$AAB?$AA?$AA@ 0000000140034600     LIBCMTD:winapinls.obj
 0002:00009610       ??_C@_1M@BGNFLDN@?$AAe?$AAs?$AA?9?$AAC?$AAO?$AA?$AA@ 0000000140034610     LIBCMTD:winapinls.obj
 0002:00009620       ??_C@_1O@JMPHMAMC@?$AAs?$AAm?$AAn?$AA?9?$AAF?$AAI?$AA?$AA@ 0000000140034620     LIBCMTD:winapinls.obj
 0002:00009630       ??_C@_1M@JLANABKE@?$AAa?$AAr?$AA?9?$AAS?$AAY?$AA?$AA@ 0000000140034630     LIBCMTD:winapinls.obj
 0002:00009640       ??_C@_1M@HPKGCFGN@?$AAe?$AAn?$AA?9?$AAB?$AAZ?$AA?$AA@ 0000000140034640     LIBCMTD:winapinls.obj
 0002:00009650       ??_C@_1M@OLJCMLGM@?$AAe?$AAs?$AA?9?$AAP?$AAE?$AA?$AA@ 0000000140034650     LIBCMTD:winapinls.obj
 0002:00009660       ??_C@_1M@MKKGFKLE@?$AAa?$AAr?$AA?9?$AAJ?$AAO?$AA?$AA@ 0000000140034660     LIBCMTD:winapinls.obj
 0002:00009670       ??_C@_1M@EKPGLDNI@?$AAe?$AAn?$AA?9?$AAT?$AAT?$AA?$AA@ 0000000140034670     LIBCMTD:winapinls.obj
 0002:00009680       ??_C@_1M@OONGHFHE@?$AAe?$AAs?$AA?9?$AAA?$AAR?$AA?$AA@ 0000000140034680     LIBCMTD:winapinls.obj
 0002:00009690       ??_C@_1M@OOJFGBHE@?$AAa?$AAr?$AA?9?$AAL?$AAB?$AA?$AA@ 0000000140034690     LIBCMTD:winapinls.obj
 0002:000096a0       ??_C@_1M@GCEJHNEG@?$AAe?$AAn?$AA?9?$AAZ?$AAW?$AA?$AA@ 00000001400346a0     LIBCMTD:winapinls.obj
 0002:000096b0       ??_C@_1M@JNOCAHJI@?$AAe?$AAs?$AA?9?$AAE?$AAC?$AA?$AA@ 00000001400346b0     LIBCMTD:winapinls.obj
 0002:000096c0       ??_C@_1M@JEFHPGGB@?$AAa?$AAr?$AA?9?$AAK?$AAW?$AA?$AA@ 00000001400346c0     LIBCMTD:winapinls.obj
 0002:000096d0       ??_C@_1M@MLKIBJOJ@?$AAe?$AAn?$AA?9?$AAP?$AAH?$AA?$AA@ 00000001400346d0     LIBCMTD:winapinls.obj
 0002:000096e0       ??_C@_1M@BDNIPEND@?$AAe?$AAs?$AA?9?$AAC?$AAL?$AA?$AA@ 00000001400346e0     LIBCMTD:winapinls.obj
 0002:000096f0       ??_C@_1M@MPNMEKBD@?$AAa?$AAr?$AA?9?$AAA?$AAE?$AA?$AA@ 00000001400346f0     LIBCMTD:winapinls.obj
 0002:00009700       ??_C@_1M@KBJALCPI@?$AAe?$AAs?$AA?9?$AAU?$AAY?$AA?$AA@ 0000000140034700     LIBCMTD:winapinls.obj
 0002:00009710       ??_C@_1M@LLCCOAGA@?$AAa?$AAr?$AA?9?$AAB?$AAH?$AA?$AA@ 0000000140034710     LIBCMTD:winapinls.obj
 0002:00009720       ??_C@_1M@PBFNCDEL@?$AAe?$AAs?$AA?9?$AAP?$AAY?$AA?$AA@ 0000000140034720     LIBCMTD:winapinls.obj
 0002:00009730       ??_C@_1M@EDGINPNP@?$AAa?$AAr?$AA?9?$AAQ?$AAA?$AA?$AA@ 0000000140034730     LIBCMTD:winapinls.obj
 0002:00009740       ??_C@_1M@MKDBIIJI@?$AAe?$AAs?$AA?9?$AAB?$AAO?$AA?$AA@ 0000000140034740     LIBCMTD:winapinls.obj
 0002:00009750       ??_C@_1M@CPKKEBLD@?$AAe?$AAs?$AA?9?$AAS?$AAV?$AA?$AA@ 0000000140034750     LIBCMTD:winapinls.obj
 0002:00009760       ??_C@_1M@NDBGMMJL@?$AAe?$AAs?$AA?9?$AAH?$AAN?$AA?$AA@ 0000000140034760     LIBCMTD:winapinls.obj
 0002:00009770       ??_C@_1M@JIJIBHDP@?$AAe?$AAs?$AA?9?$AAN?$AAI?$AA?$AA@ 0000000140034770     LIBCMTD:winapinls.obj
 0002:00009780       ??_C@_1M@CGFMKEEK@?$AAe?$AAs?$AA?9?$AAP?$AAR?$AA?$AA@ 0000000140034780     LIBCMTD:winapinls.obj
 0002:00009790       ??_C@_1O@ICJHKIIK@?$AAz?$AAh?$AA?9?$AAC?$AAH?$AAT?$AA?$AA@ 0000000140034790     LIBCMTD:winapinls.obj
 0002:000097a0       ??_C@_15CLNEJCE@?$AAs?$AAr?$AA?$AA@ 00000001400347a0     LIBCMTD:winapinls.obj
 0002:000097a8       ??_C@_1M@KAHEKEIG@?$AAa?$AAf?$AA?9?$AAz?$AAa?$AA?$AA@ 00000001400347a8     LIBCMTD:winapinls.obj
 0002:000097b8       ??_C@_1M@GIECOABL@?$AAa?$AAr?$AA?9?$AAa?$AAe?$AA?$AA@ 00000001400347b8     LIBCMTD:winapinls.obj
 0002:000097c8       ??_C@_1M@BMLMEKGI@?$AAa?$AAr?$AA?9?$AAb?$AAh?$AA?$AA@ 00000001400347c8     LIBCMTD:winapinls.obj
 0002:000097d8       ??_C@_1M@DAPFDGGB@?$AAa?$AAr?$AA?9?$AAd?$AAz?$AA?$AA@ 00000001400347d8     LIBCMTD:winapinls.obj
 0002:000097e8       ??_C@_1M@FJNKGKIG@?$AAa?$AAr?$AA?9?$AAe?$AAg?$AA?$AA@ 00000001400347e8     LIBCMTD:winapinls.obj
 0002:000097f8       ??_C@_1M@FLGKKCLO@?$AAa?$AAr?$AA?9?$AAi?$AAq?$AA?$AA@ 00000001400347f8     LIBCMTD:winapinls.obj
 0002:00009808       ??_C@_1M@GNDIPALM@?$AAa?$AAr?$AA?9?$AAj?$AAo?$AA?$AA@ 0000000140034808     LIBCMTD:winapinls.obj
 0002:00009818       ??_C@_1M@DDMJFMGJ@?$AAa?$AAr?$AA?9?$AAk?$AAw?$AA?$AA@ 0000000140034818     LIBCMTD:winapinls.obj
 0002:00009828       ??_C@_1M@EJALMLHM@?$AAa?$AAr?$AA?9?$AAl?$AAb?$AA?$AA@ 0000000140034828     LIBCMTD:winapinls.obj
 0002:00009838       ??_C@_1M@MOBDBLOC@?$AAa?$AAr?$AA?9?$AAl?$AAy?$AA?$AA@ 0000000140034838     LIBCMTD:winapinls.obj
 0002:00009848       ??_C@_1M@JAOCLHDH@?$AAa?$AAr?$AA?9?$AAm?$AAa?$AA?$AA@ 0000000140034848     LIBCMTD:winapinls.obj
 0002:00009858       ??_C@_1M@JHPMKJIE@?$AAa?$AAr?$AA?9?$AAo?$AAm?$AA?$AA@ 0000000140034858     LIBCMTD:winapinls.obj
 0002:00009868       ??_C@_1M@OEPGHFNH@?$AAa?$AAr?$AA?9?$AAq?$AAa?$AA?$AA@ 0000000140034868     LIBCMTD:winapinls.obj
 0002:00009878       ??_C@_1M@KJDONENM@?$AAa?$AAr?$AA?9?$AAs?$AAa?$AA?$AA@ 0000000140034878     LIBCMTD:winapinls.obj
 0002:00009888       ??_C@_1M@DMJDKLKM@?$AAa?$AAr?$AA?9?$AAs?$AAy?$AA?$AA@ 0000000140034888     LIBCMTD:winapinls.obj
 0002:00009898       ??_C@_1M@OMFIPEDC@?$AAa?$AAr?$AA?9?$AAt?$AAn?$AA?$AA@ 0000000140034898     LIBCMTD:winapinls.obj
 0002:000098a8       ??_C@_1M@IHMHGAON@?$AAa?$AAr?$AA?9?$AAy?$AAe?$AA?$AA@ 00000001400348a8     LIBCMTD:winapinls.obj
 0002:000098b8       ??_C@_1BG@KDCPGJGB@?$AAa?$AAz?$AA?9?$AAa?$AAz?$AA?9?$AAc?$AAy?$AAr?$AAl?$AA?$AA@ 00000001400348b8     LIBCMTD:winapinls.obj
 0002:000098d0       ??_C@_1BG@IBCKDDOE@?$AAa?$AAz?$AA?9?$AAa?$AAz?$AA?9?$AAl?$AAa?$AAt?$AAn?$AA?$AA@ 00000001400348d0     LIBCMTD:winapinls.obj
 0002:000098e8       ??_C@_1M@EGPFDCPD@?$AAb?$AAe?$AA?9?$AAb?$AAy?$AA?$AA@ 00000001400348e8     LIBCMTD:winapinls.obj
 0002:000098f8       ??_C@_1M@PCMGMCGC@?$AAb?$AAg?$AA?9?$AAb?$AAg?$AA?$AA@ 00000001400348f8     LIBCMTD:winapinls.obj
 0002:00009908       ??_C@_1M@BJBMFGOB@?$AAb?$AAn?$AA?9?$AAi?$AAn?$AA?$AA@ 0000000140034908     LIBCMTD:winapinls.obj
 0002:00009918       ??_C@_1BG@EAKMMACD@?$AAb?$AAs?$AA?9?$AAb?$AAa?$AA?9?$AAl?$AAa?$AAt?$AAn?$AA?$AA@ 0000000140034918     LIBCMTD:winapinls.obj
 0002:00009930       ??_C@_1M@KGADAODK@?$AAc?$AAa?$AA?9?$AAe?$AAs?$AA?$AA@ 0000000140034930     LIBCMTD:winapinls.obj
 0002:00009940       ??_C@_1M@COAJPDHI@?$AAc?$AAs?$AA?9?$AAc?$AAz?$AA?$AA@ 0000000140034940     LIBCMTD:winapinls.obj
 0002:00009950       ??_C@_1M@DHBHFONH@?$AAc?$AAy?$AA?9?$AAg?$AAb?$AA?$AA@ 0000000140034950     LIBCMTD:winapinls.obj
 0002:00009960       ??_C@_1M@IMGKELGA@?$AAd?$AAa?$AA?9?$AAd?$AAk?$AA?$AA@ 0000000140034960     LIBCMTD:winapinls.obj
 0002:00009970       ??_C@_1M@NNDGDNGA@?$AAd?$AAe?$AA?9?$AAa?$AAt?$AA?$AA@ 0000000140034970     LIBCMTD:winapinls.obj
 0002:00009980       ??_C@_1M@IKDBHEEM@?$AAd?$AAe?$AA?9?$AAc?$AAh?$AA?$AA@ 0000000140034980     LIBCMTD:winapinls.obj
 0002:00009990       ??_C@_1M@GFFOJMCJ@?$AAd?$AAe?$AA?9?$AAd?$AAe?$AA?$AA@ 0000000140034990     LIBCMTD:winapinls.obj
 0002:000099a0       ??_C@_1M@MDNLKBPM@?$AAd?$AAe?$AA?9?$AAl?$AAi?$AA?$AA@ 00000001400349a0     LIBCMTD:winapinls.obj
 0002:000099b0       ??_C@_1M@NJBEEJNL@?$AAd?$AAe?$AA?9?$AAl?$AAu?$AA?$AA@ 00000001400349b0     LIBCMTD:winapinls.obj
 0002:000099c0       ??_C@_1O@GNNELBAP@?$AAd?$AAi?$AAv?$AA?9?$AAm?$AAv?$AA?$AA@ 00000001400349c0     LIBCMTD:winapinls.obj
 0002:000099d0       ??_C@_1M@EJLEOGAE@?$AAe?$AAl?$AA?9?$AAg?$AAr?$AA?$AA@ 00000001400349d0     LIBCMTD:winapinls.obj
 0002:000099e0       ??_C@_1M@GMPONJN@?$AAe?$AAn?$AA?9?$AAa?$AAu?$AA?$AA@ 00000001400349e0     LIBCMTD:winapinls.obj
 0002:000099f0       ??_C@_1M@NIDIIPGF@?$AAe?$AAn?$AA?9?$AAb?$AAz?$AA?$AA@ 00000001400349f0     LIBCMTD:winapinls.obj
 0002:00009a00       ??_C@_1M@JEHMIMFO@?$AAe?$AAn?$AA?9?$AAc?$AAa?$AA?$AA@ 0000000140034a00     LIBCMTD:winapinls.obj
 0002:00009a10       ??_C@_1M@IGMJCDLA@?$AAe?$AAn?$AA?9?$AAc?$AAb?$AA?$AA@ 0000000140034a10     LIBCMTD:winapinls.obj
 0002:00009a20       ??_C@_1M@BNFIGBKG@?$AAe?$AAn?$AA?9?$AAg?$AAb?$AA?$AA@ 0000000140034a20     LIBCMTD:winapinls.obj
 0002:00009a30       ??_C@_1M@LKIFDIGP@?$AAe?$AAn?$AA?9?$AAi?$AAe?$AA?$AA@ 0000000140034a30     LIBCMTD:winapinls.obj
 0002:00009a40       ??_C@_1M@PJKFGCCO@?$AAe?$AAn?$AA?9?$AAj?$AAm?$AA?$AA@ 0000000140034a40     LIBCMTD:winapinls.obj
 0002:00009a50       ??_C@_1M@KPPKEPBO@?$AAe?$AAn?$AA?9?$AAn?$AAz?$AA?$AA@ 0000000140034a50     LIBCMTD:winapinls.obj
 0002:00009a60       ??_C@_1M@GMDGLDOB@?$AAe?$AAn?$AA?9?$AAp?$AAh?$AA?$AA@ 0000000140034a60     LIBCMTD:winapinls.obj
 0002:00009a70       ??_C@_1M@ONGIBJNA@?$AAe?$AAn?$AA?9?$AAt?$AAt?$AA?$AA@ 0000000140034a70     LIBCMTD:winapinls.obj
 0002:00009a80       ??_C@_1M@LLODPCMM@?$AAe?$AAn?$AA?9?$AAu?$AAs?$AA?$AA@ 0000000140034a80     LIBCMTD:winapinls.obj
 0002:00009a90       ??_C@_1M@LAKFNPAN@?$AAe?$AAn?$AA?9?$AAz?$AAa?$AA?$AA@ 0000000140034a90     LIBCMTD:winapinls.obj
 0002:00009aa0       ??_C@_1M@MFNHNHEO@?$AAe?$AAn?$AA?9?$AAz?$AAw?$AA?$AA@ 0000000140034aa0     LIBCMTD:winapinls.obj
 0002:00009ab0       ??_C@_1M@EJEINPHM@?$AAe?$AAs?$AA?9?$AAa?$AAr?$AA?$AA@ 0000000140034ab0     LIBCMTD:winapinls.obj
 0002:00009ac0       ??_C@_1M@GNKPCCJA@?$AAe?$AAs?$AA?9?$AAb?$AAo?$AA?$AA@ 0000000140034ac0     LIBCMTD:winapinls.obj
 0002:00009ad0       ??_C@_1M@LEEGFONL@?$AAe?$AAs?$AA?9?$AAc?$AAl?$AA?$AA@ 0000000140034ad0     LIBCMTD:winapinls.obj
 0002:00009ae0       ??_C@_1M@KGPDPBDF@?$AAe?$AAs?$AA?9?$AAc?$AAo?$AA?$AA@ 0000000140034ae0     LIBCMTD:winapinls.obj
 0002:00009af0       ??_C@_1M@EIAHOHH@?$AAe?$AAs?$AA?9?$AAc?$AAr?$AA?$AA@ 0000000140034af0     LIBCMTD:winapinls.obj
 0002:00009b00       ??_C@_1M@LLPGMBIN@?$AAe?$AAs?$AA?9?$AAd?$AAo?$AA?$AA@ 0000000140034b00     LIBCMTD:winapinls.obj
 0002:00009b10       ??_C@_1M@DKHMKNJA@?$AAe?$AAs?$AA?9?$AAe?$AAc?$AA?$AA@ 0000000140034b10     LIBCMTD:winapinls.obj
 0002:00009b20       ??_C@_1M@GKGFPKAP@?$AAe?$AAs?$AA?9?$AAe?$AAs?$AA?$AA@ 0000000140034b20     LIBCMTD:winapinls.obj
 0002:00009b30       ??_C@_1M@LKHKGDLN@?$AAe?$AAs?$AA?9?$AAg?$AAt?$AA?$AA@ 0000000140034b30     LIBCMTD:winapinls.obj
 0002:00009b40       ??_C@_1M@HEIIGGJD@?$AAe?$AAs?$AA?9?$AAh?$AAn?$AA?$AA@ 0000000140034b40     LIBCMTD:winapinls.obj
 0002:00009b50       ??_C@_1M@FBDHPPGD@?$AAe?$AAs?$AA?9?$AAm?$AAx?$AA?$AA@ 0000000140034b50     LIBCMTD:winapinls.obj
 0002:00009b60       ??_C@_1M@DPAGLNDH@?$AAe?$AAs?$AA?9?$AAn?$AAi?$AA?$AA@ 0000000140034b60     LIBCMTD:winapinls.obj
 0002:00009b70       ??_C@_1M@MDGOPGDD@?$AAe?$AAs?$AA?9?$AAp?$AAa?$AA?$AA@ 0000000140034b70     LIBCMTD:winapinls.obj
 0002:00009b80       ??_C@_1M@EMAMGBGE@?$AAe?$AAs?$AA?9?$AAp?$AAe?$AA?$AA@ 0000000140034b80     LIBCMTD:winapinls.obj
 0002:00009b90       ??_C@_1M@IBMCAOEC@?$AAe?$AAs?$AA?9?$AAp?$AAr?$AA?$AA@ 0000000140034b90     LIBCMTD:winapinls.obj
 0002:00009ba0       ??_C@_1M@FGMDIJED@?$AAe?$AAs?$AA?9?$AAp?$AAy?$AA?$AA@ 0000000140034ba0     LIBCMTD:winapinls.obj
 0002:00009bb0       ??_C@_1M@IIDEOLLL@?$AAe?$AAs?$AA?9?$AAs?$AAv?$AA?$AA@ 0000000140034bb0     LIBCMTD:winapinls.obj
 0002:00009bc0       ??_C@_1M@GAOBIPA@?$AAe?$AAs?$AA?9?$AAu?$AAy?$AA?$AA@ 0000000140034bc0     LIBCMTD:winapinls.obj
 0002:00009bd0       ??_C@_1M@JKFFICHJ@?$AAe?$AAs?$AA?9?$AAv?$AAe?$AA?$AA@ 0000000140034bd0     LIBCMTD:winapinls.obj
 0002:00009be0       ??_C@_1M@PNMLOJDF@?$AAe?$AAt?$AA?9?$AAe?$AAe?$AA?$AA@ 0000000140034be0     LIBCMTD:winapinls.obj
 0002:00009bf0       ??_C@_1M@GHHLIKEI@?$AAe?$AAu?$AA?9?$AAe?$AAs?$AA?$AA@ 0000000140034bf0     LIBCMTD:winapinls.obj
 0002:00009c00       ??_C@_1M@PBNONODE@?$AAf?$AAa?$AA?9?$AAi?$AAr?$AA?$AA@ 0000000140034c00     LIBCMTD:winapinls.obj
 0002:00009c10       ??_C@_1M@JEEHPMIL@?$AAf?$AAi?$AA?9?$AAf?$AAi?$AA?$AA@ 0000000140034c10     LIBCMTD:winapinls.obj
 0002:00009c20       ??_C@_1M@LMDCNDBA@?$AAf?$AAo?$AA?9?$AAf?$AAo?$AA?$AA@ 0000000140034c20     LIBCMTD:winapinls.obj
 0002:00009c30       ??_C@_1M@JKEOHLDK@?$AAf?$AAr?$AA?9?$AAb?$AAe?$AA?$AA@ 0000000140034c30     LIBCMTD:winapinls.obj
 0002:00009c40       ??_C@_1M@NOHADPMI@?$AAf?$AAr?$AA?9?$AAc?$AAa?$AA?$AA@ 0000000140034c40     LIBCMTD:winapinls.obj
 0002:00009c50       ??_C@_1M@KDHIHAEC@?$AAf?$AAr?$AA?9?$AAc?$AAh?$AA?$AA@ 0000000140034c50     LIBCMTD:winapinls.obj
 0002:00009c60       ??_C@_1M@MMBBFGAK@?$AAf?$AAr?$AA?9?$AAf?$AAr?$AA?$AA@ 0000000140034c60     LIBCMTD:winapinls.obj
 0002:00009c70       ??_C@_1M@PAFNENNF@?$AAf?$AAr?$AA?9?$AAl?$AAu?$AA?$AA@ 0000000140034c70     LIBCMTD:winapinls.obj
 0002:00009c80       ??_C@_1M@EOHDJGDD@?$AAf?$AAr?$AA?9?$AAm?$AAc?$AA?$AA@ 0000000140034c80     LIBCMTD:winapinls.obj
 0002:00009c90       ??_C@_1M@FAPLLOPF@?$AAg?$AAl?$AA?9?$AAe?$AAs?$AA?$AA@ 0000000140034c90     LIBCMTD:winapinls.obj
 0002:00009ca0       ??_C@_1M@FOPBFLOO@?$AAg?$AAu?$AA?9?$AAi?$AAn?$AA?$AA@ 0000000140034ca0     LIBCMTD:winapinls.obj
 0002:00009cb0       ??_C@_1M@KBMCINPM@?$AAh?$AAe?$AA?9?$AAi?$AAl?$AA?$AA@ 0000000140034cb0     LIBCMTD:winapinls.obj
 0002:00009cc0       ??_C@_1M@BBPHKFPJ@?$AAh?$AAi?$AA?9?$AAi?$AAn?$AA?$AA@ 0000000140034cc0     LIBCMTD:winapinls.obj
 0002:00009cd0       ??_C@_1M@PMBNDPHD@?$AAh?$AAr?$AA?9?$AAb?$AAa?$AA?$AA@ 0000000140034cd0     LIBCMTD:winapinls.obj
 0002:00009ce0       ??_C@_1M@BPCKOEGE@?$AAh?$AAr?$AA?9?$AAh?$AAr?$AA?$AA@ 0000000140034ce0     LIBCMTD:winapinls.obj
 0002:00009cf0       ??_C@_1M@GACBMHKE@?$AAh?$AAu?$AA?9?$AAh?$AAu?$AA?$AA@ 0000000140034cf0     LIBCMTD:winapinls.obj
 0002:00009d00       ??_C@_1M@MILPAJJC@?$AAh?$AAy?$AA?9?$AAa?$AAm?$AA?$AA@ 0000000140034d00     LIBCMTD:winapinls.obj
 0002:00009d10       ??_C@_1M@BABBICEC@?$AAi?$AAd?$AA?9?$AAi?$AAd?$AA?$AA@ 0000000140034d10     LIBCMTD:winapinls.obj
 0002:00009d20       ??_C@_1M@BIKNHHPF@?$AAi?$AAs?$AA?9?$AAi?$AAs?$AA?$AA@ 0000000140034d20     LIBCMTD:winapinls.obj
 0002:00009d30       ??_C@_1M@NMPCJPHE@?$AAi?$AAt?$AA?9?$AAc?$AAh?$AA?$AA@ 0000000140034d30     LIBCMTD:winapinls.obj
 0002:00009d40       ??_C@_1M@GHKGFEDF@?$AAi?$AAt?$AA?9?$AAi?$AAt?$AA?$AA@ 0000000140034d40     LIBCMTD:winapinls.obj
 0002:00009d50       ??_C@_1M@NIEJCJJA@?$AAj?$AAa?$AA?9?$AAj?$AAp?$AA?$AA@ 0000000140034d50     LIBCMTD:winapinls.obj
 0002:00009d60       ??_C@_1M@JILFNBIM@?$AAk?$AAa?$AA?9?$AAg?$AAe?$AA?$AA@ 0000000140034d60     LIBCMTD:winapinls.obj
 0002:00009d70       ??_C@_1M@PACPMGPH@?$AAk?$AAk?$AA?9?$AAk?$AAz?$AA?$AA@ 0000000140034d70     LIBCMTD:winapinls.obj
 0002:00009d80       ??_C@_1M@IELFGMHA@?$AAk?$AAn?$AA?9?$AAi?$AAn?$AA?$AA@ 0000000140034d80     LIBCMTD:winapinls.obj
 0002:00009d90       ??_C@_1O@IBBJHCH@?$AAk?$AAo?$AAk?$AA?9?$AAi?$AAn?$AA?$AA@ 0000000140034d90     LIBCMTD:winapinls.obj
 0002:00009da0       ??_C@_1M@DMHAEOGC@?$AAk?$AAo?$AA?9?$AAk?$AAr?$AA?$AA@ 0000000140034da0     LIBCMTD:winapinls.obj
 0002:00009db0       ??_C@_1M@HBAHBIGA@?$AAk?$AAy?$AA?9?$AAk?$AAg?$AA?$AA@ 0000000140034db0     LIBCMTD:winapinls.obj
 0002:00009dc0       ??_C@_1M@KPMILCJG@?$AAl?$AAt?$AA?9?$AAl?$AAt?$AA?$AA@ 0000000140034dc0     LIBCMTD:winapinls.obj
 0002:00009dd0       ??_C@_1M@BDEKKCA@?$AAl?$AAv?$AA?9?$AAl?$AAv?$AA?$AA@ 0000000140034dd0     LIBCMTD:winapinls.obj
 0002:00009de0       ??_C@_1M@ELCKCCJJ@?$AAm?$AAi?$AA?9?$AAn?$AAz?$AA?$AA@ 0000000140034de0     LIBCMTD:winapinls.obj
 0002:00009df0       ??_C@_1M@CBOOLAPA@?$AAm?$AAk?$AA?9?$AAm?$AAk?$AA?$AA@ 0000000140034df0     LIBCMTD:winapinls.obj
 0002:00009e00       ??_C@_1M@GPHNBJKN@?$AAm?$AAl?$AA?9?$AAi?$AAn?$AA?$AA@ 0000000140034e00     LIBCMTD:winapinls.obj
 0002:00009e10       ??_C@_1M@PABJILIG@?$AAm?$AAn?$AA?9?$AAm?$AAn?$AA?$AA@ 0000000140034e10     LIBCMTD:winapinls.obj
 0002:00009e20       ??_C@_1M@FGBKKIPG@?$AAm?$AAr?$AA?9?$AAi?$AAn?$AA?$AA@ 0000000140034e20     LIBCMTD:winapinls.obj
 0002:00009e30       ??_C@_1M@NDBPDDAL@?$AAm?$AAs?$AA?9?$AAb?$AAn?$AA?$AA@ 0000000140034e30     LIBCMTD:winapinls.obj
 0002:00009e40       ??_C@_1M@OPIHOOPI@?$AAm?$AAs?$AA?9?$AAm?$AAy?$AA?$AA@ 0000000140034e40     LIBCMTD:winapinls.obj
 0002:00009e50       ??_C@_1M@PPDBCNFM@?$AAm?$AAt?$AA?9?$AAm?$AAt?$AA?$AA@ 0000000140034e50     LIBCMTD:winapinls.obj
 0002:00009e60       ??_C@_1M@KDJDKMDD@?$AAn?$AAb?$AA?9?$AAn?$AAo?$AA?$AA@ 0000000140034e60     LIBCMTD:winapinls.obj
 0002:00009e70       ??_C@_1M@KFCFLMJP@?$AAn?$AAl?$AA?9?$AAb?$AAe?$AA?$AA@ 0000000140034e70     LIBCMTD:winapinls.obj
 0002:00009e80       ??_C@_1M@KPOPDDGO@?$AAn?$AAl?$AA?9?$AAn?$AAl?$AA?$AA@ 0000000140034e80     LIBCMTD:winapinls.obj
 0002:00009e90       ??_C@_1M@LJKPEMLN@?$AAn?$AAn?$AA?9?$AAn?$AAo?$AA?$AA@ 0000000140034e90     LIBCMTD:winapinls.obj
 0002:00009ea0       ??_C@_1M@BDGHHBFL@?$AAn?$AAs?$AA?9?$AAz?$AAa?$AA?$AA@ 0000000140034ea0     LIBCMTD:winapinls.obj
 0002:00009eb0       ??_C@_1M@IDEHOAP@?$AAp?$AAa?$AA?9?$AAi?$AAn?$AA?$AA@ 0000000140034eb0     LIBCMTD:winapinls.obj
 0002:00009ec0       ??_C@_1M@HDBKGOGH@?$AAp?$AAl?$AA?9?$AAp?$AAl?$AA?$AA@ 0000000140034ec0     LIBCMTD:winapinls.obj
 0002:00009ed0       ??_C@_1M@LJLLCMEH@?$AAp?$AAt?$AA?9?$AAb?$AAr?$AA?$AA@ 0000000140034ed0     LIBCMTD:winapinls.obj
 0002:00009ee0       ??_C@_1M@NCMONAAL@?$AAp?$AAt?$AA?9?$AAp?$AAt?$AA?$AA@ 0000000140034ee0     LIBCMTD:winapinls.obj
 0002:00009ef0       ??_C@_1O@EAKMAJDN@?$AAq?$AAu?$AAz?$AA?9?$AAb?$AAo?$AA?$AA@ 0000000140034ef0     LIBCMTD:winapinls.obj
 0002:00009f00       ??_C@_1O@BHHPIGDN@?$AAq?$AAu?$AAz?$AA?9?$AAe?$AAc?$AA?$AA@ 0000000140034f00     LIBCMTD:winapinls.obj
 0002:00009f10       ??_C@_1O@GBAPEKMJ@?$AAq?$AAu?$AAz?$AA?9?$AAp?$AAe?$AA?$AA@ 0000000140034f10     LIBCMTD:winapinls.obj
 0002:00009f20       ??_C@_1M@CLGLEFBO@?$AAr?$AAo?$AA?9?$AAr?$AAo?$AA?$AA@ 0000000140034f20     LIBCMTD:winapinls.obj
 0002:00009f30       ??_C@_1M@CEEDODME@?$AAr?$AAu?$AA?9?$AAr?$AAu?$AA?$AA@ 0000000140034f30     LIBCMTD:winapinls.obj
 0002:00009f40       ??_C@_1M@HPKKKMPP@?$AAs?$AAa?$AA?9?$AAi?$AAn?$AA?$AA@ 0000000140034f40     LIBCMTD:winapinls.obj
 0002:00009f50       ??_C@_1M@BKMAIGOJ@?$AAs?$AAe?$AA?9?$AAf?$AAi?$AA?$AA@ 0000000140034f50     LIBCMTD:winapinls.obj
 0002:00009f60       ??_C@_1M@NDPIFLFI@?$AAs?$AAe?$AA?9?$AAn?$AAo?$AA?$AA@ 0000000140034f60     LIBCMTD:winapinls.obj
 0002:00009f70       ??_C@_1M@DANKKHJ@?$AAs?$AAe?$AA?9?$AAs?$AAe?$AA?$AA@ 0000000140034f70     LIBCMTD:winapinls.obj
 0002:00009f80       ??_C@_1M@PNBLONPJ@?$AAs?$AAk?$AA?9?$AAs?$AAk?$AA?$AA@ 0000000140034f80     LIBCMTD:winapinls.obj
 0002:00009f90       ??_C@_1M@LFMODOAL@?$AAs?$AAl?$AA?9?$AAs?$AAi?$AA?$AA@ 0000000140034f90     LIBCMTD:winapinls.obj
 0002:00009fa0       ??_C@_1O@DFKOMPG@?$AAs?$AAm?$AAa?$AA?9?$AAn?$AAo?$AA?$AA@ 0000000140034fa0     LIBCMTD:winapinls.obj
 0002:00009fb0       ??_C@_1O@NDKPBNNH@?$AAs?$AAm?$AAa?$AA?9?$AAs?$AAe?$AA?$AA@ 0000000140034fb0     LIBCMTD:winapinls.obj
 0002:00009fc0       ??_C@_1O@PLLKBHAB@?$AAs?$AAm?$AAj?$AA?9?$AAn?$AAo?$AA?$AA@ 0000000140034fc0     LIBCMTD:winapinls.obj
 0002:00009fd0       ??_C@_1O@CLEPOGCA@?$AAs?$AAm?$AAj?$AA?9?$AAs?$AAe?$AA?$AA@ 0000000140034fd0     LIBCMTD:winapinls.obj
 0002:00009fe0       ??_C@_1O@DLGJGKMK@?$AAs?$AAm?$AAn?$AA?9?$AAf?$AAi?$AA?$AA@ 0000000140034fe0     LIBCMTD:winapinls.obj
 0002:00009ff0       ??_C@_1O@OJDJGAJC@?$AAs?$AAm?$AAs?$AA?9?$AAf?$AAi?$AA?$AA@ 0000000140034ff0     LIBCMTD:winapinls.obj
 0002:0000a000       ??_C@_1M@BOFOGHPB@?$AAs?$AAq?$AA?9?$AAa?$AAl?$AA?$AA@ 0000000140035000     LIBCMTD:winapinls.obj
 0002:0000a010       ??_C@_1BG@LJBBIPGB@?$AAs?$AAr?$AA?9?$AAb?$AAa?$AA?9?$AAc?$AAy?$AAr?$AAl?$AA?$AA@ 0000000140035010     LIBCMTD:winapinls.obj
 0002:0000a028       ??_C@_1BG@JLBENFOE@?$AAs?$AAr?$AA?9?$AAb?$AAa?$AA?9?$AAl?$AAa?$AAt?$AAn?$AA?$AA@ 0000000140035028     LIBCMTD:winapinls.obj
 0002:0000a040       ??_C@_1BG@KODPNHE@?$AAs?$AAr?$AA?9?$AAs?$AAp?$AA?9?$AAc?$AAy?$AAr?$AAl?$AA?$AA@ 0000000140035040     LIBCMTD:winapinls.obj
 0002:0000a058       ??_C@_1BG@CIOGKHPB@?$AAs?$AAr?$AA?9?$AAs?$AAp?$AA?9?$AAl?$AAa?$AAt?$AAn?$AA?$AA@ 0000000140035058     LIBCMTD:winapinls.obj
 0002:0000a070       ??_C@_1M@NGFJLMAC@?$AAs?$AAv?$AA?9?$AAf?$AAi?$AA?$AA@ 0000000140035070     LIBCMTD:winapinls.obj
 0002:0000a080       ??_C@_1M@MPJEJAJC@?$AAs?$AAv?$AA?9?$AAs?$AAe?$AA?$AA@ 0000000140035080     LIBCMTD:winapinls.obj
 0002:0000a090       ??_C@_1M@MPNDHLFK@?$AAs?$AAw?$AA?9?$AAk?$AAe?$AA?$AA@ 0000000140035090     LIBCMTD:winapinls.obj
 0002:0000a0a0       ??_C@_1O@KOHBJJI@?$AAs?$AAy?$AAr?$AA?9?$AAs?$AAy?$AA?$AA@ 00000001400350a0     LIBCMTD:winapinls.obj
 0002:0000a0b0       ??_C@_1M@LDCEFHA@?$AAt?$AAa?$AA?9?$AAi?$AAn?$AA?$AA@ 00000001400350b0     LIBCMTD:winapinls.obj
 0002:0000a0c0       ??_C@_1M@CNJOFAK@?$AAt?$AAe?$AA?9?$AAi?$AAn?$AA?$AA@ 00000001400350c0     LIBCMTD:winapinls.obj
 0002:0000a0d0       ??_C@_1M@GNAECACD@?$AAt?$AAh?$AA?9?$AAt?$AAh?$AA?$AA@ 00000001400350d0     LIBCMTD:winapinls.obj
 0002:0000a0e0       ??_C@_1M@CHBIHOJO@?$AAt?$AAn?$AA?9?$AAz?$AAa?$AA?$AA@ 00000001400350e0     LIBCMTD:winapinls.obj
 0002:0000a0f0       ??_C@_1M@GCCMIGPJ@?$AAt?$AAr?$AA?9?$AAt?$AAr?$AA?$AA@ 00000001400350f0     LIBCMTD:winapinls.obj
 0002:0000a100       ??_C@_1M@CELMCNBK@?$AAt?$AAt?$AA?9?$AAr?$AAu?$AA?$AA@ 0000000140035100     LIBCMTD:winapinls.obj
 0002:0000a110       ??_C@_1M@KLMCELGA@?$AAu?$AAk?$AA?9?$AAu?$AAa?$AA?$AA@ 0000000140035110     LIBCMTD:winapinls.obj
 0002:0000a120       ??_C@_1M@EPAJJAJF@?$AAu?$AAr?$AA?9?$AAp?$AAk?$AA?$AA@ 0000000140035120     LIBCMTD:winapinls.obj
 0002:0000a130       ??_C@_1BG@GEGPMCDJ@?$AAu?$AAz?$AA?9?$AAu?$AAz?$AA?9?$AAc?$AAy?$AAr?$AAl?$AA?$AA@ 0000000140035130     LIBCMTD:winapinls.obj
 0002:0000a148       ??_C@_1BG@EGGKJILM@?$AAu?$AAz?$AA?9?$AAu?$AAz?$AA?9?$AAl?$AAa?$AAt?$AAn?$AA?$AA@ 0000000140035148     LIBCMTD:winapinls.obj
 0002:0000a160       ??_C@_1M@GFOCLFF@?$AAv?$AAi?$AA?9?$AAv?$AAn?$AA?$AA@ 0000000140035160     LIBCMTD:winapinls.obj
 0002:0000a170       ??_C@_1M@CPAMEDFI@?$AAx?$AAh?$AA?9?$AAz?$AAa?$AA?$AA@ 0000000140035170     LIBCMTD:winapinls.obj
 0002:0000a180       ??_C@_1O@EBKIFIGN@?$AAz?$AAh?$AA?9?$AAc?$AAh?$AAs?$AA?$AA@ 0000000140035180     LIBCMTD:winapinls.obj
 0002:0000a190       ??_C@_1O@NMHPGANE@?$AAz?$AAh?$AA?9?$AAc?$AAh?$AAt?$AA?$AA@ 0000000140035190     LIBCMTD:winapinls.obj
 0002:0000a1a0       ??_C@_1M@LPINJOMC@?$AAz?$AAh?$AA?9?$AAc?$AAn?$AA?$AA@ 00000001400351a0     LIBCMTD:winapinls.obj
 0002:0000a1b0       ??_C@_1M@OCJEJODD@?$AAz?$AAh?$AA?9?$AAh?$AAk?$AA?$AA@ 00000001400351b0     LIBCMTD:winapinls.obj
 0002:0000a1c0       ??_C@_1M@DNDLJINH@?$AAz?$AAh?$AA?9?$AAm?$AAo?$AA?$AA@ 00000001400351c0     LIBCMTD:winapinls.obj
 0002:0000a1d0       ??_C@_1M@MBFDNDND@?$AAz?$AAh?$AA?9?$AAs?$AAg?$AA?$AA@ 00000001400351d0     LIBCMTD:winapinls.obj
 0002:0000a1e0       ??_C@_1M@IMEPLEPE@?$AAz?$AAh?$AA?9?$AAt?$AAw?$AA?$AA@ 00000001400351e0     LIBCMTD:winapinls.obj
 0002:0000a1f0       ??_C@_1M@BBGHNHJP@?$AAz?$AAu?$AA?9?$AAz?$AAa?$AA?$AA@ 00000001400351f0     LIBCMTD:winapinls.obj
 0002:0000a200       ??_C@_1FA@HHFEGMDA@?$AAf?$AA?3?$AA?2?$AAd?$AAd?$AA?2?$AAv?$AAc?$AAt?$AAo?$AAo?$AAl?$AAs?$AA?2?$AAc?$AAr?$AAt?$AA?2?$AAc?$AAr?$AAt?$AAw?$AA3?$AA2?$AA?2?$AAs?$AAt?$AAd?$AAi?$AAo?$AA?2?$AAf@ 0000000140035200     LIBCMTD:fclose.obj
 0002:0000a250       ??_C@_1O@EGMJNCOI@?$AAf?$AAc?$AAl?$AAo?$AAs?$AAe?$AA?$AA@ 0000000140035250     LIBCMTD:fclose.obj
 0002:0000a260       ??_C@_1BM@JMKHIAHP@?$AA?$CI?$AAs?$AAt?$AAr?$AA?5?$AA?$CB?$AA?$DN?$AA?5?$AAN?$AAU?$AAL?$AAL?$AA?$CJ?$AA?$AA@ 0000000140035260     LIBCMTD:fclose.obj
 0002:0000a280       ??_C@_1BO@JINCABEC@?$AA_?$AAf?$AAc?$AAl?$AAo?$AAs?$AAe?$AA_?$AAn?$AAo?$AAl?$AAo?$AAc?$AAk?$AA?$AA@ 0000000140035280     LIBCMTD:fclose.obj
 0002:0000a2a0       ??_C@_1HC@KFLBHHBC@?$AA?$CI?$AAf?$AAi?$AAl?$AAe?$AAd?$AAe?$AAs?$AA?5?$AA?$DO?$AA?$DN?$AA?5?$AA0?$AA?5?$AA?$CG?$AA?$CG?$AA?5?$AA?$CI?$AAu?$AAn?$AAs?$AAi?$AAg?$AAn?$AAe?$AAd?$AA?$CJ?$AAf?$AAi?$AAl?$AAe?$AAd@ 00000001400352a0     LIBCMTD:commit.obj
 0002:0000a320       ??_C@_1FA@HELGICMG@?$AAf?$AA?3?$AA?2?$AAd?$AAd?$AA?2?$AAv?$AAc?$AAt?$AAo?$AAo?$AAl?$AAs?$AA?2?$AAc?$AAr?$AAt?$AA?2?$AAc?$AAr?$AAt?$AAw?$AA3?$AA2?$AA?2?$AAl?$AAo?$AAw?$AAi?$AAo?$AA?2?$AAc@ 0000000140035320     LIBCMTD:commit.obj
 0002:0000a370       ??_C@_1BA@FLNMBBIM@?$AA_?$AAc?$AAo?$AAm?$AAm?$AAi?$AAt?$AA?$AA@ 0000000140035370     LIBCMTD:commit.obj
 0002:0000a380       ??_C@_1DG@LNNHNFHJ@?$AA?$CI?$AA_?$AAo?$AAs?$AAf?$AAi?$AAl?$AAe?$AA?$CI?$AAf?$AAi?$AAl?$AAe?$AAd?$AAe?$AAs?$AA?$CJ?$AA?5?$AA?$CG?$AA?5?$AAF?$AAO?$AAP?$AAE?$AAN?$AA?$CJ?$AA?$AA@ 0000000140035380     LIBCMTD:commit.obj
 0002:0000a3b8       ??_C@_1BA@BALFACEM@?$AAC?$AAO?$AAN?$AAO?$AAU?$AAT?$AA$?$AA?$AA@ 00000001400353b8     LIBCMTD:initcon.obj
 0002:0000a3c8       ??_C@_1BK@ONMFGLDB@?$AA_?$AAw?$AAo?$AAu?$AAt?$AAp?$AAu?$AAt?$AA_?$AAs?$AA_?$AAl?$AA?$AA@ 00000001400353c8     LIBCMTD:woutputs.obj
 0002:0000a3e8       _pDestructExceptionObject  00000001400353e8     LIBCMTD:frame.obj
 0002:0000a3f8       ??_7bad_exception@std@@6B@ 00000001400353f8     LIBCMTD:frame.obj
 0002:0000a408       ??_C@_0O@DPKOEFFH@bad?5exception?$AA@ 0000000140035408     LIBCMTD:frame.obj
 0002:0000a418       __rg_language_count        0000000140035418     LIBCMTD:getqloc.obj
 0002:0000a41c       __rg_country_count         000000014003541c     LIBCMTD:getqloc.obj
 0002:0000a420       ??_C@_1EO@EJLBBGEB@?$AAf?$AA?3?$AA?2?$AAd?$AAd?$AA?2?$AAv?$AAc?$AAt?$AAo?$AAo?$AAl?$AAs?$AA?2?$AAc?$AAr?$AAt?$AA?2?$AAc?$AAr?$AAt?$AAw?$AA3?$AA2?$AA?2?$AAl?$AAo?$AAw?$AAi?$AAo?$AA?2?$AAc@ 0000000140035420     LIBCMTD:close.obj
 0002:0000a470       ??_C@_1O@EDEJGJBM@?$AA_?$AAc?$AAl?$AAo?$AAs?$AAe?$AA?$AA@ 0000000140035470     LIBCMTD:close.obj
 0002:0000a480       ??_C@_1BO@KIJENGPH@?$AAs?$AAt?$AAr?$AAe?$AAa?$AAm?$AA?5?$AA?$CB?$AA?$DN?$AA?5?$AAN?$AAU?$AAL?$AAL?$AA?$AA@ 0000000140035480     LIBCMTD:_freebuf.obj
 0002:0000a4a0       ??_C@_1FE@DBCNNJOP@?$AAf?$AA?3?$AA?2?$AAd?$AAd?$AA?2?$AAv?$AAc?$AAt?$AAo?$AAo?$AAl?$AAs?$AA?2?$AAc?$AAr?$AAt?$AA?2?$AAc?$AAr?$AAt?$AAw?$AA3?$AA2?$AA?2?$AAs?$AAt?$AAd?$AAi?$AAo?$AA?2?$AA_@ 00000001400354a0     LIBCMTD:_freebuf.obj
 0002:0000a500       ??_C@_1FC@BHNGAOAE@?$AAf?$AA?3?$AA?2?$AAd?$AAd?$AA?2?$AAv?$AAc?$AAt?$AAo?$AAo?$AAl?$AAs?$AA?2?$AAc?$AAr?$AAt?$AA?2?$AAc?$AAr?$AAt?$AAw?$AA3?$AA2?$AA?2?$AAm?$AAi?$AAs?$AAc?$AA?2?$AAd?$AAb@ 0000000140035500     LIBCMTD:dbgdel.obj
 0002:0000a560       ??_7type_info@@6B@         0000000140035560     LIBCMTD:typinfo.obj
 0002:0000a570       ??_7exception@std@@6B@     0000000140035570     LIBCMTD:stdexcpt.obj
 0002:0000a580       ??_C@_0BC@EOODALEL@Unknown?5exception?$AA@ 0000000140035580     LIBCMTD:stdexcpt.obj
 0002:0000a5e0       ??_C@_1CK@GELGGBDK@?$AAp?$AAN?$AAo?$AAd?$AAe?$AA?9?$AA?$DO?$AA_?$AAN?$AAe?$AAx?$AAt?$AA?5?$AA?$CB?$AA?$DN?$AA?5?$AAN?$AAU?$AAL?$AAL?$AA?$AA@ 00000001400355e0     LIBCMTD:typname.obj
 0002:0000a610       ??_C@_1FA@KAJOMDBA@?$AAf?$AA?3?$AA?2?$AAd?$AAd?$AA?2?$AAv?$AAc?$AAt?$AAo?$AAo?$AAl?$AAs?$AA?2?$AAc?$AAr?$AAt?$AA?2?$AAc?$AAr?$AAt?$AAw?$AA3?$AA2?$AA?2?$AAe?$AAh?$AA?2?$AAt?$AAy?$AAp?$AAn@ 0000000140035610     LIBCMTD:typname.obj
 0002:0000a978       ??_C@_08EHJDFFNH@__based?$CI?$AA@ 0000000140035978     LIBCMTD:undname.obj
 0002:0000a988       ??_C@_07KOLFKCDI@__cdecl?$AA@ 0000000140035988     LIBCMTD:undname.obj
 0002:0000a990       ??_C@_08GHMPAG@__pascal?$AA@ 0000000140035990     LIBCMTD:undname.obj
 0002:0000a9a0       ??_C@_09IFJBGAPI@__stdcall?$AA@ 00000001400359a0     LIBCMTD:undname.obj
 0002:0000a9b0       ??_C@_0L@NPHFGOKO@__thiscall?$AA@ 00000001400359b0     LIBCMTD:undname.obj
 0002:0000a9c0       ??_C@_0L@JMKHOMEK@__fastcall?$AA@ 00000001400359c0     LIBCMTD:undname.obj
 0002:0000a9d0       ??_C@_0N@BCKKPABJ@__vectorcall?$AA@ 00000001400359d0     LIBCMTD:undname.obj
 0002:0000a9e0       ??_C@_09HIJEGCPM@__clrcall?$AA@ 00000001400359e0     LIBCMTD:undname.obj
 0002:0000a9ec       ??_C@_06GHPCKEAG@__eabi?$AA@ 00000001400359ec     LIBCMTD:undname.obj
 0002:0000a9f8       ??_C@_07JOMMBBKO@__ptr64?$AA@ 00000001400359f8     LIBCMTD:undname.obj
 0002:0000aa00       ??_C@_0L@PILCLIHE@__restrict?$AA@ 0000000140035a00     LIBCMTD:undname.obj
 0002:0000aa10       ??_C@_0M@GFIIJFMG@__unaligned?$AA@ 0000000140035a10     LIBCMTD:undname.obj
 0002:0000aa20       ??_C@_09DHDLOLLB@restrict?$CI?$AA@ 0000000140035a20     LIBCMTD:undname.obj
 0002:0000aa2c       ??_C@_04NIHEBCM@?5new?$AA@ 0000000140035a2c     LIBCMTD:undname.obj
 0002:0000aa38       ??_C@_07FPCDHGMM@?5delete?$AA@ 0000000140035a38     LIBCMTD:undname.obj
 0002:0000aa40       ??_C@_01NEMOKFLO@?$DN?$AA@ 0000000140035a40     LIBCMTD:undname.obj
 0002:0000aa44       ??_C@_02GPIOPFAK@?$DO?$DO?$AA@ 0000000140035a44     LIBCMTD:undname.obj
 0002:0000aa48       ??_C@_02FODMEDOG@?$DM?$DM?$AA@ 0000000140035a48     LIBCMTD:undname.obj
 0002:0000aa4c       ??_C@_01DCLJPIOD@?$CB?$AA@ 0000000140035a4c     LIBCMTD:undname.obj
 0002:0000aa50       ??_C@_02EGOFBIJA@?$DN?$DN?$AA@ 0000000140035a50     LIBCMTD:undname.obj
 0002:0000aa54       ??_C@_02FDNJECIE@?$CB?$DN?$AA@ 0000000140035a54     LIBCMTD:undname.obj
 0002:0000aa58       ??_C@_02GPECMEKF@?$FL?$FN?$AA@ 0000000140035a58     LIBCMTD:undname.obj
 0002:0000aa60       ??_C@_08LHJFAFGD@operator?$AA@ 0000000140035a60     LIBCMTD:undname.obj
 0002:0000aa6c       ??_C@_02HBOOOICD@?9?$DO?$AA@ 0000000140035a6c     LIBCMTD:undname.obj
 0002:0000aa70       ??_C@_01NBENCBCI@?$CK?$AA@ 0000000140035a70     LIBCMTD:undname.obj
 0002:0000aa74       ??_C@_02ECNGHCIF@?$CL?$CL?$AA@ 0000000140035a74     LIBCMTD:undname.obj
 0002:0000aa78       ??_C@_02BAABKJLB@?9?9?$AA@ 0000000140035a78     LIBCMTD:undname.obj
 0002:0000aa7c       ??_C@_01JOAMLHOP@?9?$AA@   0000000140035a7c     LIBCMTD:undname.obj
 0002:0000aa80       ??_C@_01MIFGBAGJ@?$CL?$AA@ 0000000140035a80     LIBCMTD:undname.obj
 0002:0000aa84       ??_C@_01HNPIGOCE@?$CG?$AA@ 0000000140035a84     LIBCMTD:undname.obj
 0002:0000aa88       ??_C@_03MNHNFDLC@?9?$DO?$CK?$AA@ 0000000140035a88     LIBCMTD:undname.obj
 0002:0000aa8c       ??_C@_01KMDKNFGN@?1?$AA@   0000000140035a8c     LIBCMTD:undname.obj
 0002:0000aa90       ??_C@_01FGNFDNOH@?$CF?$AA@ 0000000140035a90     LIBCMTD:undname.obj
 0002:0000aa94       ??_C@_01MNNFJEPP@?$DM?$AA@ 0000000140035a94     LIBCMTD:undname.obj
 0002:0000aa98       ??_C@_02EHCHHCKH@?$DM?$DN?$AA@ 0000000140035a98     LIBCMTD:undname.obj
 0002:0000aa9c       ??_C@_01PPODPGHN@?$DO?$AA@ 0000000140035a9c     LIBCMTD:undname.obj
 0002:0000aaa0       ??_C@_02EEKDKGMJ@?$DO?$DN?$AA@ 0000000140035aa0     LIBCMTD:undname.obj
 0002:0000aaa4       ??_C@_01IHBHIGKO@?0?$AA@   0000000140035aa4     LIBCMTD:undname.obj
 0002:0000aaa8       ??_C@_02HCKGKOFO@?$CI?$CJ?$AA@ 0000000140035aa8     LIBCMTD:undname.obj
 0002:0000aaac       ??_C@_01PJKLJHI@?$HO?$AA@  0000000140035aac     LIBCMTD:undname.obj
 0002:0000aab0       ??_C@_01JKBOJNNK@?$FO?$AA@ 0000000140035ab0     LIBCMTD:undname.obj
 0002:0000aab4       ??_C@_01DNKMNLPK@?$HM?$AA@ 0000000140035ab4     LIBCMTD:undname.obj
 0002:0000aab8       ??_C@_02PPKAJPJL@?$CG?$CG?$AA@ 0000000140035ab8     LIBCMTD:undname.obj
 0002:0000aabc       ??_C@_02NONPIBCD@?$HM?$HM?$AA@ 0000000140035abc     LIBCMTD:undname.obj
 0002:0000aac0       ??_C@_02FPIMKNGF@?$CK?$DN?$AA@ 0000000140035ac0     LIBCMTD:undname.obj
 0002:0000aac4       ??_C@_02FOEOMHFC@?$CL?$DN?$AA@ 0000000140035ac4     LIBCMTD:undname.obj
 0002:0000aac8       ??_C@_02FKMDLLOA@?9?$DN?$AA@ 0000000140035ac8     LIBCMTD:undname.obj
 0002:0000aacc       ??_C@_02FJEHGPIO@?1?$DN?$AA@ 0000000140035acc     LIBCMTD:undname.obj
 0002:0000aad0       ??_C@_02FENAOKFI@?$CF?$DN?$AA@ 0000000140035ad0     LIBCMTD:undname.obj
 0002:0000aad4       ??_C@_03IKFCCPFF@?$DO?$DO?$DN?$AA@ 0000000140035ad4     LIBCMTD:undname.obj
 0002:0000aad8       ??_C@_03CDNPDDLA@?$DM?$DM?$DN?$AA@ 0000000140035ad8     LIBCMTD:undname.obj
 0002:0000aadc       ??_C@_02FGJGFEAB@?$CG?$DN?$AA@ 0000000140035adc     LIBCMTD:undname.obj
 0002:0000aae0       ??_C@_02DHLNPPGH@?$HM?$DN?$AA@ 0000000140035ae0     LIBCMTD:undname.obj
 0002:0000aae4       ??_C@_02MHEGNOJ@?$FO?$DN?$AA@ 0000000140035ae4     LIBCMTD:undname.obj
 0002:0000aae8       ??_C@_09IFPLHPGF@?$GAvftable?8?$AA@ 0000000140035ae8     LIBCMTD:undname.obj
 0002:0000aaf8       ??_C@_09BLBHBJP@?$GAvbtable?8?$AA@ 0000000140035af8     LIBCMTD:undname.obj
 0002:0000ab08       ??_C@_07FEEIOKP@?$GAvcall?8?$AA@ 0000000140035b08     LIBCMTD:undname.obj
 0002:0000ab10       ??_C@_08LLFFHHDJ@?$GAtypeof?8?$AA@ 0000000140035b10     LIBCMTD:undname.obj
 0002:0000ab20       ??_C@_0BF@KDPPACIK@?$GAlocal?5static?5guard?8?$AA@ 0000000140035b20     LIBCMTD:undname.obj
 0002:0000ab38       ??_C@_08OBABFOLI@?$GAstring?8?$AA@ 0000000140035b38     LIBCMTD:undname.obj
 0002:0000ab48       ??_C@_0BD@JDLKDPAB@?$GAvbase?5destructor?8?$AA@ 0000000140035b48     LIBCMTD:undname.obj
 0002:0000ab60       ??_C@_0BN@DEGPLNFK@?$GAvector?5deleting?5destructor?8?$AA@ 0000000140035b60     LIBCMTD:undname.obj
 0002:0000ab80       ??_C@_0BO@OBMKPJIG@?$GAdefault?5constructor?5closure?8?$AA@ 0000000140035b80     LIBCMTD:undname.obj
 0002:0000aba0       ??_C@_0BN@IMDCHIKM@?$GAscalar?5deleting?5destructor?8?$AA@ 0000000140035ba0     LIBCMTD:undname.obj
 0002:0000abc0       ??_C@_0BO@PFGOCPJJ@?$GAvector?5constructor?5iterator?8?$AA@ 0000000140035bc0     LIBCMTD:undname.obj
 0002:0000abe0       ??_C@_0BN@LFPFMEDL@?$GAvector?5destructor?5iterator?8?$AA@ 0000000140035be0     LIBCMTD:undname.obj
 0002:0000ac00       ??_C@_0CE@IKBNEHA@?$GAvector?5vbase?5constructor?5iterat@ 0000000140035c00     LIBCMTD:undname.obj
 0002:0000ac28       ??_C@_0BL@NILFHHPC@?$GAvirtual?5displacement?5map?8?$AA@ 0000000140035c28     LIBCMTD:undname.obj
 0002:0000ac48       ??_C@_0CB@JONCMFFK@?$GAeh?5vector?5constructor?5iterator?8@ 0000000140035c48     LIBCMTD:undname.obj
 0002:0000ac70       ??_C@_0CA@GCEOPDGL@?$GAeh?5vector?5destructor?5iterator?8?$AA@ 0000000140035c70     LIBCMTD:undname.obj
 0002:0000ac90       ??_C@_0CH@OOJPLCPH@?$GAeh?5vector?5vbase?5constructor?5ite@ 0000000140035c90     LIBCMTD:undname.obj
 0002:0000acb8       ??_C@_0BL@LLKPOHJI@?$GAcopy?5constructor?5closure?8?$AA@ 0000000140035cb8     LIBCMTD:undname.obj
 0002:0000acd8       ??_C@_0BA@KBCDOMBN@?$GAudt?5returning?8?$AA@ 0000000140035cd8     LIBCMTD:undname.obj
 0002:0000ace8       ??_C@_03KLGMFNMG@?$GAEH?$AA@ 0000000140035ce8     LIBCMTD:undname.obj
 0002:0000acec       ??_C@_05KHLCHHI@?$GARTTI?$AA@ 0000000140035cec     LIBCMTD:undname.obj
 0002:0000acf8       ??_C@_0BA@KKLDJDLB@?$GAlocal?5vftable?8?$AA@ 0000000140035cf8     LIBCMTD:undname.obj
 0002:0000ad08       ??_C@_0CE@IIHCMGGL@?$GAlocal?5vftable?5constructor?5closu@ 0000000140035d08     LIBCMTD:undname.obj
 0002:0000ad2c       ??_C@_06FHBGPFGH@?5new?$FL?$FN?$AA@ 0000000140035d2c     LIBCMTD:undname.obj
 0002:0000ad38       ??_C@_09LBNFPBCA@?5delete?$FL?$FN?$AA@ 0000000140035d38     LIBCMTD:undname.obj
 0002:0000ad48       ??_C@_0P@HJKNJFNN@?$GAomni?5callsig?8?$AA@ 0000000140035d48     LIBCMTD:undname.obj
 0002:0000ad58       ??_C@_0BL@CNOONJFP@?$GAplacement?5delete?5closure?8?$AA@ 0000000140035d58     LIBCMTD:undname.obj
 0002:0000ad78       ??_C@_0BN@CKNJLHMB@?$GAplacement?5delete?$FL?$FN?5closure?8?$AA@ 0000000140035d78     LIBCMTD:undname.obj
 0002:0000ad98       ??_C@_0CG@CFDHKGGD@?$GAmanaged?5vector?5constructor?5iter@ 0000000140035d98     LIBCMTD:undname.obj
 0002:0000adc0       ??_C@_0CF@IMGKMJNO@?$GAmanaged?5vector?5destructor?5itera@ 0000000140035dc0     LIBCMTD:undname.obj
 0002:0000ade8       ??_C@_0CG@HLDDJMAG@?$GAeh?5vector?5copy?5constructor?5iter@ 0000000140035de8     LIBCMTD:undname.obj
 0002:0000ae10       ??_C@_0CM@FCBBDIGB@?$GAeh?5vector?5vbase?5copy?5constructo@ 0000000140035e10     LIBCMTD:undname.obj
 0002:0000ae40       ??_C@_0BL@CLIPGLGB@?$GAdynamic?5initializer?5for?5?8?$AA@ 0000000140035e40     LIBCMTD:undname.obj
 0002:0000ae60       ??_C@_0CB@PDBIFEP@?$GAdynamic?5atexit?5destructor?5for?5?8@ 0000000140035e60     LIBCMTD:undname.obj
 0002:0000ae88       ??_C@_0CD@CGAJBKEJ@?$GAvector?5copy?5constructor?5iterato@ 0000000140035e88     LIBCMTD:undname.obj
 0002:0000aeb0       ??_C@_0CJ@GJELGAMM@?$GAvector?5vbase?5copy?5constructor?5i@ 0000000140035eb0     LIBCMTD:undname.obj
 0002:0000aee0       ??_C@_0CL@FGIJHLCE@?$GAmanaged?5vector?5copy?5constructor@ 0000000140035ee0     LIBCMTD:undname.obj
 0002:0000af10       ??_C@_0BM@PMGGMLDN@?$GAlocal?5static?5thread?5guard?8?$AA@ 0000000140035f10     LIBCMTD:undname.obj
 0002:0000af30       ??_C@_0BC@DAFEJGAK@?5Type?5Descriptor?8?$AA@ 0000000140035f30     LIBCMTD:undname.obj
 0002:0000af48       ??_C@_0BM@LDKODKLH@?5Base?5Class?5Descriptor?5at?5?$CI?$AA@ 0000000140035f48     LIBCMTD:undname.obj
 0002:0000af68       ??_C@_0BD@LGICGFMM@?5Base?5Class?5Array?8?$AA@ 0000000140035f68     LIBCMTD:undname.obj
 0002:0000af80       ??_C@_0BN@MECKDCOJ@?5Class?5Hierarchy?5Descriptor?8?$AA@ 0000000140035f80     LIBCMTD:undname.obj
 0002:0000afa0       ??_C@_0BK@CFCOFLF@?5Complete?5Object?5Locator?8?$AA@ 0000000140035fa0     LIBCMTD:undname.obj
 0002:0000afc0       _load_config_used          0000000140035fc0     LIBCMTD:loadcfg.obj
 0002:0000b080       ??_R4bad_exception@std@@6B@ 0000000140036080     LIBCMTD:frame.obj
 0002:0000b0a8       ??_R3bad_exception@std@@8  00000001400360a8     LIBCMTD:frame.obj
 0002:0000b0c0       ??_R2bad_exception@std@@8  00000001400360c0     LIBCMTD:frame.obj
 0002:0000b0d8       ??_R1A@?0A@EA@bad_exception@std@@8 00000001400360d8     LIBCMTD:frame.obj
 0002:0000b100       ??_R1A@?0A@EA@exception@std@@8 0000000140036100     LIBCMTD:frame.obj
 0002:0000b128       ??_R3exception@std@@8      0000000140036128     LIBCMTD:frame.obj
 0002:0000b140       ??_R2exception@std@@8      0000000140036140     LIBCMTD:frame.obj
 0002:0000b150       ??_R4type_info@@6B@        0000000140036150     LIBCMTD:typinfo.obj
 0002:0000b178       ??_R3type_info@@8          0000000140036178     LIBCMTD:typinfo.obj
 0002:0000b190       ??_R2type_info@@8          0000000140036190     LIBCMTD:typinfo.obj
 0002:0000b1a0       ??_R1A@?0A@EA@type_info@@8 00000001400361a0     LIBCMTD:typinfo.obj
 0002:0000b1c8       ??_R4exception@std@@6B@    00000001400361c8     LIBCMTD:stdexcpt.obj
 0002:0000b1f0       __rtc_iaa                  00000001400361f0     LIBCMTD:initsect.obj
 0002:0000b1f8       __rtc_izz                  00000001400361f8     LIBCMTD:initsect.obj
 0002:0000b200       __rtc_taa                  0000000140036200     LIBCMTD:initsect.obj
 0002:0000b208       __rtc_tzz                  0000000140036208     LIBCMTD:initsect.obj
 0002:0000bed8       _TI2?AVbad_exception@std@@ 0000000140036ed8     LIBCMTD:frame.obj
 0002:0000bef8       _CTA2?AVbad_exception@std@@ 0000000140036ef8     LIBCMTD:frame.obj
 0002:0000bf10       _CT??_R0?AVbad_exception@std@@@8??0bad_exception@std@@QEAA@AEBV01@@Z24 0000000140036f10     LIBCMTD:frame.obj
 0002:0000bf38       _CT??_R0?AVexception@std@@@8??0exception@std@@QEAA@AEBV01@@Z24 0000000140036f38     LIBCMTD:frame.obj
 0002:0000bf5c       __IMPORT_DESCRIPTOR_USER32 0000000140036f5c     User32:USER32.dll
 0002:0000bf70       __IMPORT_DESCRIPTOR_GDI32  0000000140036f70     gdi32:GDI32.dll
 0002:0000bf84       __IMPORT_DESCRIPTOR_WINMM  0000000140036f84     winmm:WINMM.dll
 0002:0000bf98       __IMPORT_DESCRIPTOR_KERNEL32 0000000140036f98     kernel32:KERNEL32.dll
 0002:0000bfac       __NULL_IMPORT_DESCRIPTOR   0000000140036fac     User32:USER32.dll
 0003:00000000       __security_cookie          0000000140038000     LIBCMTD:gs_cookie.obj
 0003:00000008       __security_cookie_complement 0000000140038008     LIBCMTD:gs_cookie.obj
 0003:00000010       _fltused                   0000000140038010     LIBCMTD:fpinit.obj
 0003:00000014       _ldused                    0000000140038014     LIBCMTD:fpinit.obj
 0003:00000020       __nullstring               0000000140038020     LIBCMTD:output.obj
 0003:00000028       __wnullstring              0000000140038028     LIBCMTD:output.obj
 0003:000001a0       _crtBreakAlloc             00000001400381a0     LIBCMTD:dbgheap.obj
 0003:000001a4       _crtDbgFlag                00000001400381a4     LIBCMTD:dbgheap.obj
 0003:000001a8       __crtDebugFillThreshold    00000001400381a8     LIBCMTD:dbgheap.obj
 0003:000001c0       _cfltcvt_tab               00000001400381c0     LIBCMTD:cmiscdat.obj
 0003:00000210       __flsindex                 0000000140038210     LIBCMTD:tidtable.obj
 0003:00000220       __badioinfo                0000000140038220     LIBCMTD:ioinit.obj
 0003:00000280       _pfnAllocHook              0000000140038280     LIBCMTD:dbghook.obj
 0003:00000290       _iob                       0000000140038290     LIBCMTD:_file.obj
 0003:00000890       _crtAssertBusy             0000000140038890     LIBCMTD:dbgrptt.obj
 0003:00000898       _CrtDbgMode                0000000140038898     LIBCMTD:dbgrptt.obj
 0003:000008a8       _CrtDbgFile                00000001400388a8     LIBCMTD:dbgrptt.obj
 0003:000008c0       __isa_available            00000001400388c0     LIBCMTD:cpu_disp.obj
 0003:000008c4       __isa_enabled              00000001400388c4     LIBCMTD:cpu_disp.obj
 0003:000008d0       _mbctype                   00000001400388d0     LIBCMTD:mbctype.obj
 0003:000009e0       _mbcasemap                 00000001400389e0     LIBCMTD:mbctype.obj
 0003:00000ae0       __initialmbcinfo           0000000140038ae0     LIBCMTD:mbctype.obj
 0003:00000e00       __ptmbcinfo                0000000140038e00     LIBCMTD:mbctype.obj
 0003:00000e10       __mb_cur_max               0000000140038e10     LIBCMTD:nlsdata.obj
 0003:00000e14       __wclocalestr              0000000140038e14     LIBCMTD:nlsdata.obj
 0003:00000e20       __lc_time_c                0000000140038e20     LIBCMTD:nlsdata.obj
 0003:000010e0       __ptlocinfo                00000001400390e0     LIBCMTD:nlsdata.obj
 0003:000010f0       __initiallocinfo           00000001400390f0     LIBCMTD:nlsdata.obj
 0003:00001248       __globallocalestatus       0000000140039248     LIBCMTD:glstatus.obj
 0003:00001434       _matherr_flag              0000000140039434     LIBCMTD:matherr.obj
 0003:00001440       __lconv                    0000000140039440     LIBCMTD:lconv.obj
 0003:00001448       __lconv_static_decimal     0000000140039448     LIBCMTD:lconv.obj
 0003:00001450       __lconv_c                  0000000140039450     LIBCMTD:lconv.obj
 0003:000014e8       __lconv_static_W_decimal   00000001400394e8     LIBCMTD:lconv.obj
 0003:000014f0       _pctype                    00000001400394f0     LIBCMTD:ctype.obj
 0003:000014f8       _pwctype                   00000001400394f8     LIBCMTD:ctype.obj
 0003:00001508       _d_inf                     0000000140039508     LIBCMTD:util.obj
 0003:00001510       _d_ind                     0000000140039510     LIBCMTD:util.obj
 0003:00001518       _d_max                     0000000140039518     LIBCMTD:util.obj
 0003:00001520       _d_min                     0000000140039520     LIBCMTD:util.obj
 0003:00001528       _d_mzero                   0000000140039528     LIBCMTD:util.obj
 0003:00001560       __abort_behavior           0000000140039560     LIBCMTD:abort.obj
 0003:00001568       _confh                     0000000140039568     LIBCMTD:initcon.obj
 0003:00001570       _pow10pos                  0000000140039570     LIBCMTD:constpow.obj
 0003:000016d0       _pow10neg                  00000001400396d0     LIBCMTD:constpow.obj
 0003:00001830       _HUGE                      0000000140039830     LIBCMTD:huge.obj
 0003:00001838       ??_R0?AVbad_exception@std@@@8 0000000140039838     LIBCMTD:frame.obj
 0003:00001860       ??_R0?AVexception@std@@@8  0000000140039860     LIBCMTD:frame.obj
 0003:00001888       ??_R0?AVtype_info@@@8      0000000140039888     LIBCMTD:typinfo.obj
 0003:0000190c       __fastflag                 000000014003990c     LIBCMTD:fpinit.obj
 0003:00001910       _aenvptr                   0000000140039910     LIBCMTD:wincrt0.obj
 0003:00001918       _wenvptr                   0000000140039918     LIBCMTD:wincrt0.obj
 0003:00001920       __pInvalidArgHandler       0000000140039920     LIBCMTD:invarg.obj
 0003:00001928       __crtDebugCheckCount       0000000140039928     LIBCMTD:dbgheap.obj
 0003:00001930       ?_pfnDumpClient@@3P6AXPEAX_K@ZEA 0000000140039930     LIBCMTD:dbgheap.obj
 0003:00001ee8       __argc                     0000000140039ee8     LIBCMTD:crt0dat.obj
 0003:00001eec       _C_Exit_Done               0000000140039eec     LIBCMTD:crt0dat.obj
 0003:00001ef0       __argv                     0000000140039ef0     LIBCMTD:crt0dat.obj
 0003:00001ef8       __wargv                    0000000140039ef8     LIBCMTD:crt0dat.obj
 0003:00001f00       _environ                   0000000140039f00     LIBCMTD:crt0dat.obj
 0003:00001f08       _wenviron                  0000000140039f08     LIBCMTD:crt0dat.obj
 0003:00001f10       _pgmptr                    0000000140039f10     LIBCMTD:crt0dat.obj
 0003:00001f18       _wpgmptr                   0000000140039f18     LIBCMTD:crt0dat.obj
 0003:00001f20       _umaskval                  0000000140039f20     LIBCMTD:crt0dat.obj
 0003:00001f24       _exitflag                  0000000140039f24     LIBCMTD:crt0dat.obj
 0003:00001f28       _C_Termination_Done        0000000140039f28     LIBCMTD:crt0dat.obj
 0003:00001f30       __winitenv                 0000000140039f30     LIBCMTD:crt0dat.obj
 0003:00001f38       __initenv                  0000000140039f38     LIBCMTD:crt0dat.obj
 0003:00001f40       _crtheap                   0000000140039f40     LIBCMTD:heapinit.obj
 0003:00001f50       __pioinfo                  0000000140039f50     LIBCMTD:ioinit.obj
 0003:00002260       __app_type                 000000014003a260     LIBCMTD:crt0msg.obj
 0003:00002898       __error_mode               000000014003a898     LIBCMTD:errmode.obj
 0003:0000289c       _cflush                    000000014003a89c     LIBCMTD:_file.obj
 0003:00002b48       __favor                    000000014003ab48     LIBCMTD:cpu_disp.obj
 0003:00002b50       __mbcodepage               000000014003ab50     LIBCMTD:mbctype.obj
 0003:00002b54       __ismbcodepage             000000014003ab54     LIBCMTD:mbctype.obj
 0003:00002b58       __mbulinfo                 000000014003ab58     LIBCMTD:mbctype.obj
 0003:00002b68       __mblocalename             000000014003ab68     LIBCMTD:mbctype.obj
 0003:00002b80       ?_pnhHeap@@3P6AH_K@ZEA     000000014003ab80     LIBCMTD:handler.obj
 0003:00002b88       _newmode                   000000014003ab88     LIBCMTD:_newmode.obj
 0003:00002b8c       _outputformat              000000014003ab8c     LIBCMTD:outputformat.obj
 0003:00002b90       ?__pInconsistency@@3P6AXXZEA 000000014003ab90     LIBCMTD:hooks.obj
 0003:00002b98       __pPurecall                000000014003ab98     LIBCMTD:inithelp.obj
 0003:00002ba8       _stdbuf                    000000014003aba8     LIBCMTD:_sftbuf.obj
 0003:00002bb8       __lconv_static_null        000000014003abb8     LIBCMTD:lconv.obj
 0003:00002bbc       __lconv_static_W_null      000000014003abbc     LIBCMTD:lconv.obj
 0003:00002bc0       __locale_changed           000000014003abc0     LIBCMTD:wsetloca.obj
 0003:00002bd0       ?g_OutOfMemoryExceptionCallback@@3P6APEAXXZEA 000000014003abd0     LIBCMTD:frame.obj
 0003:00002be8       ?m_pGetParameter@UnDecorator@@0P6APEADJ@ZEA 000000014003abe8     LIBCMTD:undname.obj
 0003:00002bf0       ?pArgList@UnDecorator@@0PEAVReplicator@@EA 000000014003abf0     LIBCMTD:undname.obj
 0003:00002bf8       ?pZNameList@UnDecorator@@0PEAVReplicator@@EA 000000014003abf8     LIBCMTD:undname.obj
 0003:00002c00       ?pTemplateArgList@UnDecorator@@0PEAVReplicator@@EA 000000014003ac00     LIBCMTD:undname.obj
 0003:00002c08       ?gName@UnDecorator@@0PEBDEB 000000014003ac08     LIBCMTD:undname.obj
 0003:00002c10       ?name@UnDecorator@@0PEBDEB 000000014003ac10     LIBCMTD:undname.obj
 0003:00002c18       ?outputString@UnDecorator@@0PEADEA 000000014003ac18     LIBCMTD:undname.obj
 0003:00002c20       ?maxStringLength@UnDecorator@@0HA 000000014003ac20     LIBCMTD:undname.obj
 0003:00002c24       ?disableFlags@UnDecorator@@0KA 000000014003ac24     LIBCMTD:undname.obj
 0003:00002c28       ?fExplicitTemplateParams@UnDecorator@@0_NA 000000014003ac28     LIBCMTD:undname.obj
 0003:00002c29       ?fGetTemplateArgumentList@UnDecorator@@0_NA 000000014003ac29     LIBCMTD:undname.obj
 0003:00002c58       _pReportHookListW          000000014003ac58     <common>
 0003:00002c60       _pReportHookList           000000014003ac60     <common>
 0003:00002c68       _pfnReportHook             000000014003ac68     <common>
 0003:00002c70       __piob                     000000014003ac70     <common>
 0003:00002c78       _nstream                   000000014003ac78     <common>
 0003:00002c80       _bufin                     000000014003ac80     <common>
 0003:00003c80       _debugger_hook_dummy       000000014003bc80     <common>
 0003:00003ca0       encodedKERNEL32Functions   000000014003bca0     <common>
 0003:00003da8       _nhandle                   000000014003bda8     <common>
 0003:00003db0       __dyn_tls_init_callback    000000014003bdb0     <common>
 0003:00003db8       __onexitend                000000014003bdb8     <common>
 0003:00003dc0       __onexitbegin              000000014003bdc0     <common>
 0003:00003dc8       __mbctype_initialized      000000014003bdc8     <common>
 0003:00003dcc       __env_initialized          000000014003bdcc     <common>
 0003:00003dd0       _acmdln                    000000014003bdd0     <common>

 entry point at        0001:00003bb0

 Static symbols

 0000:fffc1000       .debug$S                   0000000140000000     User32:USER32.dll
 0000:fffc1000       .debug$S                   0000000140000000     kernel32:KERNEL32.dll
 0000:fffc1000       .debug$S                   0000000140000000     kernel32:KERNEL32.dll
 0000:fffc1000       .debug$S                   0000000140000000     kernel32:KERNEL32.dll
 0000:fffc1000       .debug$S                   0000000140000000     kernel32:KERNEL32.dll
 0000:fffc1000       .debug$S                   0000000140000000     kernel32:KERNEL32.dll
 0000:fffc1000       .debug$S                   0000000140000000     kernel32:KERNEL32.dll
 0000:fffc1000       .debug$S                   0000000140000000     kernel32:KERNEL32.dll
 0000:fffc1000       .debug$S                   0000000140000000     kernel32:KERNEL32.dll
 0000:fffc1000       .debug$S                   0000000140000000     kernel32:KERNEL32.dll
 0000:fffc1000       .debug$S                   0000000140000000     kernel32:KERNEL32.dll
 0000:fffc1000       .debug$S                   0000000140000000     kernel32:KERNEL32.dll
 0000:fffc1000       .debug$S                   0000000140000000     kernel32:KERNEL32.dll
 0000:fffc1000       .debug$S                   0000000140000000     kernel32:KERNEL32.dll
 0000:fffc1000       .debug$S                   0000000140000000     kernel32:KERNEL32.dll
 0000:fffc1000       .debug$S                   0000000140000000     kernel32:KERNEL32.dll
 0000:fffc1000       .debug$S                   0000000140000000     kernel32:KERNEL32.dll
 0000:fffc1000       .debug$S                   0000000140000000     kernel32:KERNEL32.dll
 0000:fffc1000       .debug$S                   0000000140000000     kernel32:KERNEL32.dll
 0000:fffc1000       .debug$S                   0000000140000000     kernel32:KERNEL32.dll
 0000:fffc1000       .debug$S                   0000000140000000     kernel32:KERNEL32.dll
 0000:fffc1000       .debug$S                   0000000140000000     winmm:WINMM.dll
 0000:fffc1000       .debug$S                   0000000140000000     winmm:WINMM.dll
 0000:fffc1000       .debug$S                   0000000140000000     kernel32:KERNEL32.dll
 0000:fffc1000       .debug$S                   0000000140000000     gdi32:GDI32.dll
 0000:fffc1000       .debug$S                   0000000140000000     kernel32:KERNEL32.dll
 0000:fffc1000       .debug$S                   0000000140000000     User32:USER32.dll
 0000:fffc1000       .debug$S                   0000000140000000     User32:USER32.dll
 0000:fffc1000       .debug$S                   0000000140000000     User32:USER32.dll
 0000:fffc1000       .debug$S                   0000000140000000     User32:USER32.dll
 0000:fffc1000       .debug$S                   0000000140000000     User32:USER32.dll
 0000:fffc1000       .debug$S                   0000000140000000     User32:USER32.dll
 0000:fffc1000       .debug$S                   0000000140000000     User32:USER32.dll
 0000:fffc1000       .debug$S                   0000000140000000     User32:USER32.dll
 0000:fffc1000       .debug$S                   0000000140000000     User32:USER32.dll
 0000:fffc1000       .debug$S                   0000000140000000     User32:USER32.dll
 0000:fffc1000       .debug$S                   0000000140000000     kernel32:KERNEL32.dll
 0000:fffc1000       .debug$S                   0000000140000000     kernel32:KERNEL32.dll
 0000:fffc1000       .debug$S                   0000000140000000     kernel32:KERNEL32.dll
 0000:fffc1000       .debug$S                   0000000140000000     kernel32:KERNEL32.dll
 0000:fffc1000       .debug$S                   0000000140000000     kernel32:KERNEL32.dll
 0000:fffc1000       .debug$S                   0000000140000000     kernel32:KERNEL32.dll
 0000:fffc1000       .debug$S                   0000000140000000     kernel32:KERNEL32.dll
 0000:fffc1000       .debug$S                   0000000140000000     kernel32:KERNEL32.dll
 0000:fffc1000       .debug$S                   0000000140000000     kernel32:KERNEL32.dll
 0000:fffc1000       .debug$S                   0000000140000000     kernel32:KERNEL32.dll
 0000:fffc1000       .debug$S                   0000000140000000     kernel32:KERNEL32.dll
 0000:fffc1000       .debug$S                   0000000140000000     kernel32:KERNEL32.dll
 0000:fffc1000       .debug$S                   0000000140000000     kernel32:KERNEL32.dll
 0000:fffc1000       .debug$S                   0000000140000000     kernel32:KERNEL32.dll
 0000:fffc1000       .debug$S                   0000000140000000     kernel32:KERNEL32.dll
 0000:fffc1000       .debug$S                   0000000140000000     kernel32:KERNEL32.dll
 0000:fffc1000       .debug$S                   0000000140000000     kernel32:KERNEL32.dll
 0000:fffc1000       .debug$S                   0000000140000000     kernel32:KERNEL32.dll
 0000:fffc1000       .debug$S                   0000000140000000     kernel32:KERNEL32.dll
 0000:fffc1000       .debug$S                   0000000140000000     kernel32:KERNEL32.dll
 0000:fffc1000       .debug$S                   0000000140000000     kernel32:KERNEL32.dll
 0000:fffc1000       .debug$S                   0000000140000000     kernel32:KERNEL32.dll
 0000:fffc1000       .debug$S                   0000000140000000     kernel32:KERNEL32.dll
 0000:fffc1000       .debug$S                   0000000140000000     kernel32:KERNEL32.dll
 0000:fffc1000       .debug$S                   0000000140000000     kernel32:KERNEL32.dll
 0000:fffc1000       .debug$S                   0000000140000000     kernel32:KERNEL32.dll
 0000:fffc1000       .debug$S                   0000000140000000     kernel32:KERNEL32.dll
 0000:fffc1000       .debug$S                   0000000140000000     kernel32:KERNEL32.dll
 0000:fffc1000       .debug$S                   0000000140000000     kernel32:KERNEL32.dll
 0000:fffc1000       .debug$S                   0000000140000000     kernel32:KERNEL32.dll
 0000:fffc1000       .debug$S                   0000000140000000     kernel32:KERNEL32.dll
 0000:fffc1000       .debug$S                   0000000140000000     kernel32:KERNEL32.dll
 0000:fffc1000       .debug$S                   0000000140000000     kernel32:KERNEL32.dll
 0000:fffc1000       .debug$S                   0000000140000000     kernel32:KERNEL32.dll
 0000:fffc1000       .debug$S                   0000000140000000     kernel32:KERNEL32.dll
 0000:fffc1000       .debug$S                   0000000140000000     kernel32:KERNEL32.dll
 0000:fffc1000       .debug$S                   0000000140000000     kernel32:KERNEL32.dll
 0000:fffc1000       .debug$S                   0000000140000000     kernel32:KERNEL32.dll
 0000:fffc1000       .debug$S                   0000000140000000     kernel32:KERNEL32.dll
 0000:fffc1000       .debug$S                   0000000140000000     kernel32:KERNEL32.dll
 0000:fffc1000       .debug$S                   0000000140000000     kernel32:KERNEL32.dll
 0000:fffc1000       .debug$S                   0000000140000000     kernel32:KERNEL32.dll
 0000:fffc1000       .debug$S                   0000000140000000     kernel32:KERNEL32.dll
 0000:fffc1000       .debug$S                   0000000140000000     kernel32:KERNEL32.dll
 0000:fffc1000       .debug$S                   0000000140000000     kernel32:KERNEL32.dll
 0000:fffc1000       .debug$S                   0000000140000000     kernel32:KERNEL32.dll
 0000:fffc1000       .debug$S                   0000000140000000     kernel32:KERNEL32.dll
 0000:fffc1000       .debug$S                   0000000140000000     kernel32:KERNEL32.dll
 0000:fffc1000       .debug$S                   0000000140000000     kernel32:KERNEL32.dll
 0000:fffc1000       .debug$S                   0000000140000000     kernel32:KERNEL32.dll
 0000:fffc1000       .debug$S                   0000000140000000     kernel32:KERNEL32.dll
 0000:fffc1000       .debug$S                   0000000140000000     kernel32:KERNEL32.dll
 0000:fffc1000       .debug$S                   0000000140000000     kernel32:KERNEL32.dll
 0000:fffc1000       .debug$S                   0000000140000000     kernel32:KERNEL32.dll
 0000:fffc1000       .debug$S                   0000000140000000     kernel32:KERNEL32.dll
 0000:fffc1000       .debug$S                   0000000140000000     kernel32:KERNEL32.dll
 0000:fffc1000       .debug$S                   0000000140000000     kernel32:KERNEL32.dll
 0000:fffc1000       .debug$S                   0000000140000000     kernel32:KERNEL32.dll
 0000:fffc1000       .debug$S                   0000000140000000     kernel32:KERNEL32.dll
 0000:fffc1000       .debug$S                   0000000140000000     kernel32:KERNEL32.dll
 0000:fffc1000       .debug$S                   0000000140000000     kernel32:KERNEL32.dll
 0000:fffc1000       .debug$S                   0000000140000000     kernel32:KERNEL32.dll
 0000:fffc1000       .debug$S                   0000000140000000     kernel32:KERNEL32.dll
 0000:fffc1000       .debug$S                   0000000140000000     kernel32:KERNEL32.dll
 0000:fffc1000       .debug$S                   0000000140000000     kernel32:KERNEL32.dll
 0000:fffc1000       .debug$S                   0000000140000000     kernel32:KERNEL32.dll
 0000:fffc1000       .debug$S                   0000000140000000     kernel32:KERNEL32.dll
 0000:fffc1000       .debug$S                   0000000140000000     kernel32:KERNEL32.dll
 0001:00000a40       ?RoundToInt@@YAHM@Z        0000000140001a40 f   win32_pong.obj
 0001:00000a70       ?FloorFloat@@YAHM@Z        0000000140001a70 f   win32_pong.obj
 0001:00000aa0       ?GetPixelPositionFromRelativePosition@@YA?ATvect2@@Urelative_position@@Utile_map@@@Z 0000000140001aa0 f   win32_pong.obj
 0001:00000b20       ?DrawRectangle@@YAXTvect2@@0PEAUgame_screen_buffer@@H@Z 0000000140001b20 f   win32_pong.obj
 0001:00000cf0       ?DrawTileMap@@YAXUtile_map@@PEAUgame_screen_buffer@@@Z 0000000140001cf0 f   win32_pong.obj
 0001:00000df0       ?DetermineNewTile@@YA?AUrelative_position@@U1@Utile_map@@@Z 0000000140001df0 f   win32_pong.obj
 0001:00000ef0       ?TileIsEmpty@@YA_NUtile_map@@Urelative_position@@@Z 0000000140001ef0 f   win32_pong.obj
 0001:00000f40       ?GetPlayerBottomRight@@YA?AUrelative_position@@Uplayer@@Utile_map@@@Z 0000000140001f40 f   win32_pong.obj
 0001:00001050       ?DEBUGDrawContainerTile@@YAXUrelative_position@@Utile_map@@PEAUgame_screen_buffer@@@Z 0000000140002050 f   win32_pong.obj
 0001:000010e0       ?GetPositionDiff@@YA?ATvect2@@T1@M0@Z 00000001400020e0 f   win32_pong.obj
 0001:00001190       ?GetPlayerAcceleration@@YA?ATvect2@@Ugame_controller_input@@@Z 0000000140002190 f   win32_pong.obj
 0001:00001270       ?MovePlayer@@YAXUgame_controller_input@@PEAUgame_state@@Utile_map@@M@Z 0000000140002270 f   win32_pong.obj
 0001:00001670       ?GameUpdateRender@@YAXUgame_sound_data@@Ugame_screen_buffer@@Ugame_controller_input@@PEAUgame_memory@@M@Z 0000000140002670 f   win32_pong.obj
 0001:00001df0       ?InitGameSound@@YAXPEAUSound_Data@@PEAUgame_sound_data@@H@Z 0000000140002df0 f   win32_pong.obj
 0001:00001e80       ?ProcessMessageQueue@@YAXPEAUgame_controller_input@@@Z 0000000140002e80 f   win32_pong.obj
 0001:00002140       ?GetTimeCount@@YA?AT_LARGE_INTEGER@@XZ 0000000140003140 f   win32_pong.obj
 0001:00002160       ?GetPerformanceFrequency@@YA_KXZ 0000000140003160 f   win32_pong.obj
 0001:00002180       ?GetTimeElapsed@@YAMT_LARGE_INTEGER@@0@Z 0000000140003180 f   win32_pong.obj
 0001:00002200       ?FillSoundBuffer@@YAXPEAUSound_Data@@PEAUgame_sound_data@@HH@Z 0000000140003200 f   win32_pong.obj
 0001:00002640       ?UpdateScreen@@YAXPEAUScreenBuffer@@PEAUHDC__@@@Z 0000000140003640 f   win32_pong.obj
 0001:000038a0       $$000000                   00000001400048a0     LIBCMTD:amdsecgs.obj
 0001:00003bd0       __tmainCRTStartup          0000000140004bd0 f   LIBCMTD:wincrt0.obj
 0001:00003d20       check_managed_app          0000000140004d20 f   LIBCMTD:wincrt0.obj
 0001:00003dd0       fast_error_exit            0000000140004dd0 f   LIBCMTD:wincrt0.obj
 0001:00004e30       $$000000                   0000000140005e30     LIBCMTD:memset.obj
 0001:00004fd5       MsetTab                    0000000140005fd5     LIBCMTD:memset.obj
 0001:00006c58       $LN180                     0000000140007c58     LIBCMTD:outputs.obj
 0001:00006c78       $LN179                     0000000140007c78     LIBCMTD:outputs.obj
 0001:00006cb4       $LN178                     0000000140007cb4     LIBCMTD:outputs.obj
 0001:00006cf0       write_char                 0000000140007cf0 f   LIBCMTD:outputs.obj
 0001:00006dd0       write_multi_char           0000000140007dd0 f   LIBCMTD:outputs.obj
 0001:00006e30       write_string               0000000140007e30 f   LIBCMTD:outputs.obj
 0001:00007040       ?_CrtMemDumpAllObjectsSince_stat@@YAXPEBU_CrtMemState@@PEAUlocaleinfo_struct@@@Z 0000000140008040 f   LIBCMTD:dbgheap.obj
 0001:000073e0       ?__crtIsBadReadPtr@@YAHPEBX_K@Z 00000001400083e0 f   LIBCMTD:dbgheap.obj
 0001:00007500       CheckBytes                 0000000140008500 f   LIBCMTD:dbgheap.obj
 0001:00008920       _heap_alloc_dbg_impl       0000000140009920 f   LIBCMTD:dbgheap.obj
 0001:000090e0       _nh_malloc_dbg_impl        000000014000a0e0 f   LIBCMTD:dbgheap.obj
 0001:00009180       _printMemBlockData         000000014000a180 f   LIBCMTD:dbgheap.obj
 0001:00009460       realloc_help               000000014000a460 f   LIBCMTD:dbgheap.obj
 0001:00009f50       _call_matherr              000000014000af50 f   LIBCMTD:libm_error.obj
 0001:00009fe0       _exception_enabled         000000014000afe0 f   LIBCMTD:libm_error.obj
 0001:0000af80       _cftoe2_l                  000000014000bf80 f   LIBCMTD:cvt.obj
 0001:0000b890       _cftof2_l                  000000014000c890 f   LIBCMTD:cvt.obj
 0001:0000c690       _shift                     000000014000d690 f   LIBCMTD:cvt.obj
 0001:0000ca70       xcptlookup                 000000014000da70 f   LIBCMTD:winxfltr.obj
 0001:0000d470       _initterm                  000000014000e470 f   LIBCMTD:crt0dat.obj
 0001:0000d560       doexit                     000000014000e560 f   LIBCMTD:crt0dat.obj
 0001:0000df60       parse_cmdline              000000014000ef60 f   LIBCMTD:stdargv.obj
 0001:0000ef40       __IsPackagedAppHelper      000000014000ff40 f   LIBCMTD:winapisupp.obj
 0001:00012be0       $LN41                      0000000140013be0     LIBCMTD:winsig.obj
 0001:00012bf8       $LN40                      0000000140013bf8     LIBCMTD:winsig.obj
 0001:00012c10       siglookup                  0000000140013c10 f   LIBCMTD:winsig.obj
 0001:00014680       $$000000                   0000000140015680     LIBCMTD:chkstk.obj
 0001:000151f0       ?CPtoLocaleName@@YAPEB_WH@Z 00000001400161f0 f   LIBCMTD:mbctype.obj
 0001:00015290       ?getSystemCP@@YAHH@Z       0000000140016290 f   LIBCMTD:mbctype.obj
 0001:00015370       ?setSBCS@@YAXPEAUthreadmbcinfostruct@@@Z 0000000140016370 f   LIBCMTD:mbctype.obj
 0001:00015470       ?setSBUpLow@@YAXPEAUthreadmbcinfostruct@@@Z 0000000140016470 f   LIBCMTD:mbctype.obj
 0001:00016120       $$000000                   0000000140017120     LIBCMTD:strlen.obj
 0001:00016a60       $$000000                   0000000140017a60     LIBCMTD:memcpy.obj
 0001:00016b50       MoveSmall                  0000000140017b50     LIBCMTD:memcpy.obj
 0001:000172e0       _is_LFH_enabled            00000001400182e0 f   LIBCMTD:expand.obj
 0001:0001a070       _onexit_nolock             000000014001b070 f   LIBCMTD:onexit.obj
 0001:0001a2c0       $$000000                   000000014001b2c0     LIBCMTD:jmpuwind.obj
 0001:0001a340       ?x_ismbbtype_l@@YAHPEAUlocaleinfo_struct@@IHH@Z 000000014001b340 f   LIBCMTD:ismbbyte.obj
 0001:0001b3a0       flsall                     000000014001c3a0 f   LIBCMTD:fflush.obj
 0001:0001cd10       xtoa_s                     000000014001dd10 f   LIBCMTD:xtoas.obj
 0001:0001de10       ?wcsncnt@@YA_KPEB_W_K@Z    000000014001ee10 f   LIBCMTD:wcstombs.obj
 0001:0001ec80       xtow_s                     000000014001fc80 f   LIBCMTD:xtows.obj
 0001:00020060       ?__crtLCMapStringA_stat@@YAHPEAUlocaleinfo_struct@@PEB_WKPEBDHPEADHHH@Z 0000000140021060 f   LIBCMTD:a_map.obj
 0001:000204d0       ?strncnt@@YAHPEBDH@Z       00000001400214d0 f   LIBCMTD:a_map.obj
 0001:000206f0       ?__crtGetStringTypeA_stat@@YAHPEAUlocaleinfo_struct@@KPEBDHPEAGHH@Z 00000001400216f0 f   LIBCMTD:a_str.obj
 0001:00020940       ?_CatchTryBlock@@YAPEBU_s_TryBlockMapEntry@@PEBU_s_FuncInfo@@H@Z 0000000140021940 f   LIBCMTD:trnsctrl.obj
 0001:000213b0       $$000000                   00000001400223b0     LIBCMTD:fpsr.obj
 0001:000231c4       $LN140                     00000001400241c4     LIBCMTD:strgtold.obj
 0001:000231f4       $LN139                     00000001400241f4     LIBCMTD:strgtold.obj
 0001:00023204       $LN138                     0000000140024204     LIBCMTD:strgtold.obj
 0001:00023240       $LN137                     0000000140024240     LIBCMTD:strgtold.obj
 0001:0002324c       $LN136                     000000014002424c     LIBCMTD:strgtold.obj
 0001:00023288       $LN135                     0000000140024288     LIBCMTD:strgtold.obj
 0001:00023294       $LN134                     0000000140024294     LIBCMTD:strgtold.obj
 0001:00025be8       $LN169                     0000000140026be8     LIBCMTD:woutputs.obj
 0001:00025c08       $LN168                     0000000140026c08     LIBCMTD:woutputs.obj
 0001:00025c44       $LN167                     0000000140026c44     LIBCMTD:woutputs.obj
 0001:00025c80       write_char                 0000000140026c80 f   LIBCMTD:woutputs.obj
 0001:00025d00       write_multi_char           0000000140026d00 f   LIBCMTD:woutputs.obj
 0001:00025d60       write_string               0000000140026d60 f   LIBCMTD:woutputs.obj
 0001:000264f0       ?CatchIt@@YAXPEAUEHExceptionRecord@@PEA_KPEAU_CONTEXT@@PEAU_xDISPATCHER_CONTEXT@@PEBU_s_FuncInfo@@PEBU_s_HandlerType@@PEBU_s_CatchableType@@PEBU_s_TryBlockMapEntry@@H1EE@Z 00000001400274f0 f   LIBCMTD:frame.obj
 0001:000265d0       ?ExFilterRethrow@@YAHPEAU_EXCEPTION_POINTERS@@PEAUEHExceptionRecord@@PEAH@Z 00000001400275d0 f   LIBCMTD:frame.obj
 0001:000266e0       ?FindHandler@@YAXPEAUEHExceptionRecord@@PEA_KPEAU_CONTEXT@@PEAU_xDISPATCHER_CONTEXT@@PEBU_s_FuncInfo@@EH1@Z 00000001400276e0 f   LIBCMTD:frame.obj
 0001:00026ef0       ?FindHandlerForForeignException@@YAXPEAUEHExceptionRecord@@PEA_KPEAU_CONTEXT@@PEAU_xDISPATCHER_CONTEXT@@PEBU_s_FuncInfo@@HH1@Z 0000000140027ef0 f   LIBCMTD:frame.obj
 0001:00027270       ?IsInExceptionSpec@@YAEPEAUEHExceptionRecord@@PEBU_s_ESTypeList@@@Z 0000000140028270 f   LIBCMTD:frame.obj
 0001:00027380       ?Is_bad_exception_allowed@@YAEPEBU_s_ESTypeList@@@Z 0000000140028380 f   LIBCMTD:frame.obj
 0001:00027440       ?__RethrowException@@YAXPEAUEHExceptionRecord@@@Z 0000000140028440 f   LIBCMTD:frame.obj
 0001:00028840       $$000000                   0000000140029840     LIBCMTD:memcmp.obj
 0001:00029380       $$000000                   000000014002a380     LIBCMTD:strcmp.obj
 0001:00029460       $$000000                   000000014002a460     LIBCMTD:handlers.obj
 0001:00029a30       __tmainCRTStartup$filt$0   000000014002aa30 f   LIBCMTD:wincrt0.obj
 0001:00029a60       _CrtCheckMemory$fin$0      000000014002aa60 f   LIBCMTD:dbgheap.obj
 0001:00029a80       _free_dbg$fin$0            000000014002aa80 f   LIBCMTD:dbgheap.obj
 0001:00029aa0       _heap_alloc_dbg_impl$fin$0 000000014002aaa0 f   LIBCMTD:dbgheap.obj
 0001:00029aa0       ?fin$0@?0??_CrtMemDumpAllObjectsSince_stat@@YAXPEBU_CrtMemState@@PEAUlocaleinfo_struct@@@Z@4HA 000000014002aaa0 f   LIBCMTD:dbgheap.obj
 0001:00029aa0       _CrtMemCheckpoint$fin$0    000000014002aaa0 f   LIBCMTD:dbgheap.obj
 0001:00029ac0       ?fin$0@?0???3@YAXPEAX@Z@4HA 000000014002aac0 f   LIBCMTD:dbgheap.obj
 0001:00029ac0       _CrtSetDbgFlag$fin$0       000000014002aac0 f   LIBCMTD:dbgheap.obj
 0001:00029ac0       _realloc_dbg$fin$0         000000014002aac0 f   LIBCMTD:dbgheap.obj
 0001:00029ac0       _msize_dbg$fin$0           000000014002aac0 f   LIBCMTD:dbgheap.obj
 0001:00029ae0       _freefls$fin$0             000000014002aae0 f   LIBCMTD:tidtable.obj
 0001:00029ae0       _initptd$fin$0             000000014002aae0 f   LIBCMTD:tidtable.obj
 0001:00029afb       _freefls$fin$1             000000014002aafb f   LIBCMTD:tidtable.obj
 0001:00029afb       _initptd$fin$1             000000014002aafb f   LIBCMTD:tidtable.obj
 0001:00029b20       doexit$fin$0               000000014002ab20 f   LIBCMTD:crt0dat.obj
 0001:00029b40       _ioinit$fin$0              000000014002ab40 f   LIBCMTD:ioinit.obj
 0001:00029b60       raise$fin$0                000000014002ab60 f   LIBCMTD:winsig.obj
 0001:00029b80       _VCrtDbgReportA$fin$0      000000014002ab80 f   LIBCMTD:dbgrptt.obj
 0001:00029b9b       _VCrtDbgReportA$fin$1      000000014002ab9b f   LIBCMTD:dbgrptt.obj
 0001:00029bc0       _VCrtDbgReportW$fin$0      000000014002abc0 f   LIBCMTD:dbgrptt.obj
 0001:00029bdb       _VCrtDbgReportW$fin$1      000000014002abdb f   LIBCMTD:dbgrptt.obj
 0001:00029c00       _locterm$fin$0             000000014002ac00 f   LIBCMTD:localref.obj
 0001:00029c00       __updatetlocinfo$fin$0     000000014002ac00 f   LIBCMTD:localref.obj
 0001:00029c20       ?dtor$0@?0??getSystemCP@@YAHH@Z@4HA 000000014002ac20 f   LIBCMTD:mbctype.obj
 0001:00029c40       _setmbcp$fin$0             000000014002ac40 f   LIBCMTD:mbctype.obj
 0001:00029c40       __updatetmbcinfo$fin$0     000000014002ac40 f   LIBCMTD:mbctype.obj
 0001:00029c60       _ctrlfp$filt$0             000000014002ac60 f   LIBCMTD:fpctrl.obj
 0001:00029cb0       __BuildCatchObject$filt$0  000000014002acb0 f   LIBCMTD:hooks.obj
 0001:00029cb0       __BuildCatchObjectHelper$filt$0 000000014002acb0 f   LIBCMTD:hooks.obj
 0001:00029cb0       ?filt$0@?0??_inconsistency@@YAXXZ@4HA 000000014002acb0 f   LIBCMTD:hooks.obj
 0001:00029cb0       ?filt$0@?0??terminate@@YAXXZ@4HA 000000014002acb0 f   LIBCMTD:hooks.obj
 0001:00029cb0       ?filt$0@?0??__crtIsBadReadPtr@@YAHPEBX_K@Z@4HA 000000014002acb0 f   LIBCMTD:hooks.obj
 0001:00029cd0       _IsNonwritableInCurrentImage$filt$0 000000014002acd0 f   LIBCMTD:pesect.obj
 0001:00029d10       _onexit$fin$0              000000014002ad10 f   LIBCMTD:onexit.obj
 0001:00029d30       ?dtor$0@?0??x_ismbbtype_l@@YAHPEAUlocaleinfo_struct@@IHH@Z@4HA 000000014002ad30 f   LIBCMTD:ismbbyte.obj
 0001:00029d50       _fcloseall$fin$0           000000014002ad50 f   LIBCMTD:closeall.obj
 0001:00029d70       flsall$fin$0               000000014002ad70 f   LIBCMTD:fflush.obj
 0001:00029d98       flsall$fin$1               000000014002ad98 f   LIBCMTD:fflush.obj
 0001:00029dc0       __lock_fhandle$fin$0       000000014002adc0 f   LIBCMTD:osfinfo.obj
 0001:00029dc0       _mtinitlocknum$fin$0       000000014002adc0 f   LIBCMTD:osfinfo.obj
 0001:00029de0       _CallSETranslator$filt$0   000000014002ade0 f   LIBCMTD:trnsctrl.obj
 0001:00029e40       fclose$fin$0               000000014002ae40 f   LIBCMTD:fclose.obj
 0001:00029e60       __CxxCallCatchBlock$filt$0 000000014002ae60 f   LIBCMTD:frame.obj
 0001:00029e89       __CxxCallCatchBlock$fin$1  000000014002ae89 f   LIBCMTD:frame.obj
 0001:00029f30       __DestructExceptionObject$filt$0 000000014002af30 f   LIBCMTD:frame.obj
 0001:00029f60       __FrameUnwindToState$filt$0 000000014002af60 f   LIBCMTD:frame.obj
 0001:00029f81       __FrameUnwindToState$fin$1 000000014002af81 f   LIBCMTD:frame.obj
 0001:00029fc0       _write$fin$0               000000014002afc0 f   LIBCMTD:close.obj
 0001:00029fc0       _lseeki64$fin$0            000000014002afc0 f   LIBCMTD:close.obj
 0001:00029fc0       _close$fin$0               000000014002afc0 f   LIBCMTD:close.obj
 0001:00029fc0       _commit$fin$0              000000014002afc0 f   LIBCMTD:close.obj
 0001:00029fe0       ?fin$0@?0??_Type_info_dtor@type_info@@CAXPEAV1@@Z@4HA 000000014002afe0 f   LIBCMTD:typname.obj
 0002:00000300       pinit                      000000014002b300     LIBCMTD:_file.obj
 0002:00000308       pinit                      000000014002b308     LIBCMTD:cpu_disp.obj
 0002:00000310       pinit                      000000014002b310     LIBCMTD:mbctype.obj
 0002:00000318       pinit                      000000014002b318     LIBCMTD:onexit.obj
 0002:00000320       pinit                      000000014002b320     LIBCMTD:wincrt0.obj
 0002:00000338       pterm                      000000014002b338     LIBCMTD:wsetloca.obj
 0002:00000340       pterm                      000000014002b340     LIBCMTD:initcon.obj
 0002:00000348       pterm                      000000014002b348     LIBCMTD:_file.obj
 0002:000003a8       $SG76161                   000000014002b3a8     win32_pong.obj
 0002:000003b0       $SG76163                   000000014002b3b0     win32_pong.obj
 0002:000003b8       $SG76166                   000000014002b3b8     win32_pong.obj
 0002:000003c0       $SG76168                   000000014002b3c0     win32_pong.obj
 0002:000003c8       $SG76171                   000000014002b3c8     win32_pong.obj
 0002:000003d0       $SG76173                   000000014002b3d0     win32_pong.obj
 0002:000003d8       $SG76176                   000000014002b3d8     win32_pong.obj
 0002:000003e0       $SG76178                   000000014002b3e0     win32_pong.obj
 0002:000003e8       $SG76230                   000000014002b3e8     win32_pong.obj
 0002:000003f8       $SG76234                   000000014002b3f8     win32_pong.obj
 0002:00000410       $SG76279                   000000014002b410     win32_pong.obj
 0002:00000420       $SG76281                   000000014002b420     win32_pong.obj
 0002:00000430       $SG76283                   000000014002b430     win32_pong.obj
 0002:00000440       $SG76296                   000000014002b440     win32_pong.obj
 0002:00000450       $SG76303                   000000014002b450     win32_pong.obj
 0002:00000458       $SG76373                   000000014002b458     win32_pong.obj
 0002:00000688       ?mask@?3??_d_int@@9@9      000000014002b688     LIBCMTD:_test.obj
 0002:000006a8       ?sub@?3??_d_int@@9@9       000000014002b6a8     LIBCMTD:_test.obj
 0002:000006c8       ?mask@?3??_fd_int@@9@9     000000014002b6c8     LIBCMTD:_test.obj
 0002:000006e8       ?sub@?3??_fd_int@@9@9      000000014002b6e8     LIBCMTD:_test.obj
 0002:000007f0       _CrtDbgModeMsg             000000014002b7f0     LIBCMTD:dbgrptw.obj
 0002:000011b0       szBlockUseName             000000014002c1b0     LIBCMTD:dbgheap.obj
 0002:00002128       GS_ExceptionPointers       000000014002d128     LIBCMTD:gs_report.obj
 0002:00002650       rterrs                     000000014002d650     LIBCMTD:crt0msg.obj
 0002:00004ef8       _mb_locale_names           000000014002fef8     LIBCMTD:mbctype.obj
 0002:00004f58       $cppxdata$?getSystemCP@@YAHH@Z 000000014002ff58     LIBCMTD:mbctype.obj
 0002:00005530       _CrtDbgModeMsg             0000000140030530     LIBCMTD:dbgrpt.obj
 0002:000059f8       $cppxdata$?x_ismbbtype_l@@YAHPEAUlocaleinfo_struct@@IHH@Z 00000001400309f8     LIBCMTD:ismbbyte.obj
 0002:00006380       ?ExceptionTemplate@?1??_UnwindNestedFrames@@9@4U_EXCEPTION_RECORD@@B 0000000140031380     LIBCMTD:trnsctrl.obj
 0002:00006c30       _first_127char             0000000140031c30     LIBCMTD:wsetloca.obj
 0002:00006cb0       __real@433fffffffffffff    0000000140031cb0     LIBCMTD:fpsr.obj
 0002:00006cb8       __real@c33fffffffffffff    0000000140031cb8     LIBCMTD:fpsr.obj
 0002:0000a5a0       ?ExceptionTemplate@?1??_CxxThrowException@@9@4UEHExceptionRecord@@B 00000001400355a0     LIBCMTD:throw.obj
 0002:0000a660       tokenTable                 0000000140035660     LIBCMTD:undname.obj
 0002:0000a6d0       nameTable                  00000001400356d0     LIBCMTD:undname.obj
 0002:0000a950       rttiTable                  0000000140035950     LIBCMTD:undname.obj
 0002:0000b210       $unwind$WinMain            0000000140036210     win32_pong.obj
 0002:0000b224       $unwind$??H@YA?ATvect2@@T0@0@Z 0000000140036224     win32_pong.obj
 0002:0000b234       $unwind$??Y@YAAEATvect2@@AEAT0@T0@@Z 0000000140036234     win32_pong.obj
 0002:0000b244       $unwind$??G@YA?ATvect2@@T0@0@Z 0000000140036244     win32_pong.obj
 0002:0000b254       $unwind$??D@YA?ATvect2@@MT0@@Z 0000000140036254     win32_pong.obj
 0002:0000b264       $unwind$??X@YAAEATvect2@@AEAT0@M@Z 0000000140036264     win32_pong.obj
 0002:0000b274       $unwind$?DotProduct@@YAMTvect2@@0@Z 0000000140036274     win32_pong.obj
 0002:0000b27c       $unwind$?RoundToInt@@YAHM@Z 000000014003627c     win32_pong.obj
 0002:0000b284       $unwind$?FloorFloat@@YAHM@Z 0000000140036284     win32_pong.obj
 0002:0000b28c       $unwind$?GetPixelPositionFromRelativePosition@@YA?ATvect2@@Urelative_position@@Utile_map@@@Z 000000014003628c     win32_pong.obj
 0002:0000b29c       $unwind$?DrawRectangle@@YAXTvect2@@0PEAUgame_screen_buffer@@H@Z 000000014003629c     win32_pong.obj
 0002:0000b2ac       $unwind$?DrawTileMap@@YAXUtile_map@@PEAUgame_screen_buffer@@@Z 00000001400362ac     win32_pong.obj
 0002:0000b2bc       $unwind$?DetermineNewTile@@YA?AUrelative_position@@U1@Utile_map@@@Z 00000001400362bc     win32_pong.obj
 0002:0000b2c8       $unwind$?GetPlayerBottomRight@@YA?AUrelative_position@@Uplayer@@Utile_map@@@Z 00000001400362c8     win32_pong.obj
 0002:0000b2dc       $unwind$?DEBUGDrawContainerTile@@YAXUrelative_position@@Utile_map@@PEAUgame_screen_buffer@@@Z 00000001400362dc     win32_pong.obj
 0002:0000b2ec       $unwind$?GetPositionDiff@@YA?ATvect2@@T1@M0@Z 00000001400362ec     win32_pong.obj
 0002:0000b2fc       $unwind$?GetPlayerAcceleration@@YA?ATvect2@@Ugame_controller_input@@@Z 00000001400362fc     win32_pong.obj
 0002:0000b30c       $unwind$?MovePlayer@@YAXUgame_controller_input@@PEAUgame_state@@Utile_map@@M@Z 000000014003630c     win32_pong.obj
 0002:0000b320       $unwind$?GameUpdateRender@@YAXUgame_sound_data@@Ugame_screen_buffer@@Ugame_controller_input@@PEAUgame_memory@@M@Z 0000000140036320     win32_pong.obj
 0002:0000b334       $unwind$?InitGameSound@@YAXPEAUSound_Data@@PEAUgame_sound_data@@H@Z 0000000140036334     win32_pong.obj
 0002:0000b33c       $unwind$?ProcessMessageQueue@@YAXPEAUgame_controller_input@@@Z 000000014003633c     win32_pong.obj
 0002:0000b344       $unwind$?GetTimeCount@@YA?AT_LARGE_INTEGER@@XZ 0000000140036344     win32_pong.obj
 0002:0000b34c       $unwind$?GetPerformanceFrequency@@YA_KXZ 000000014003634c     win32_pong.obj
 0002:0000b354       $unwind$?GetTimeElapsed@@YAMT_LARGE_INTEGER@@0@Z 0000000140036354     win32_pong.obj
 0002:0000b35c       $unwind$?FillSoundBuffer@@YAXPEAUSound_Data@@PEAUgame_sound_data@@HH@Z 000000014003635c     win32_pong.obj
 0002:0000b364       $unwind$?InitDSound@@YAXPEAUHWND__@@HPEAUSound_Data@@@Z 0000000140036364     win32_pong.obj
 0002:0000b378       $unwind$?UpdateScreen@@YAXPEAUScreenBuffer@@PEAUHDC__@@@Z 0000000140036378     win32_pong.obj
 0002:0000b380       $unwind$?ResizeClientBuffer@@YAXPEAUScreenBuffer@@JJ@Z 0000000140036380     win32_pong.obj
 0002:0000b388       $unwind$?MainWindowCallback@@YA_JPEAUHWND__@@I_K_J@Z 0000000140036388     win32_pong.obj
 0002:0000b398       $unwind$?floor@@YAMM@Z     0000000140036398     win32_pong.obj
 0002:0000b3a0       $unwind$?DrawPlayer@@YAXUplayer@@Utile_map@@PEAUgame_screen_buffer@@@Z 00000001400363a0     win32_pong.obj
 0002:0000b3b4       $unwind$roundf             00000001400363b4     LIBCMTD:roundf.obj
 0002:0000b3bc       $unwind$_vswprintf_helper  00000001400363bc     LIBCMTD:vsnprnc.obj
 0002:0000b3bc       $unwind$_vsnprintf_helper  00000001400363bc     LIBCMTD:vsnprnc.obj
 0002:0000b3c8       $unwind$__GSHandlerCheck   00000001400363c8     LIBCMTD:gshandler.obj
 0002:0000b3c8       $unwind$_invoke_watson     00000001400363c8     LIBCMTD:gshandler.obj
 0002:0000b3d0       $xdatasym                  00000001400363d0     LIBCMTD:amdsecgs.obj
 0002:0000b3d4       $unwind$floorf             00000001400363d4     LIBCMTD:floorf.obj
 0002:0000b3dc       $unwind$exit               00000001400363dc     LIBCMTD:wincrt0.obj
 0002:0000b3dc       $unwind$isleadbyte         00000001400363dc     LIBCMTD:wincrt0.obj
 0002:0000b3dc       $unwind$fast_error_exit    00000001400363dc     LIBCMTD:wincrt0.obj
 0002:0000b3dc       $unwind$_amsg_exit         00000001400363dc     LIBCMTD:wincrt0.obj
 0002:0000b3dc       $unwind$_unlock_fhandle    00000001400363dc     LIBCMTD:wincrt0.obj
 0002:0000b3dc       $unwind$__crtExitProcess   00000001400363dc     LIBCMTD:wincrt0.obj
 0002:0000b3dc       $unwind$_unlock            00000001400363dc     LIBCMTD:wincrt0.obj
 0002:0000b3dc       $unwind$_ismbblead         00000001400363dc     LIBCMTD:wincrt0.obj
 0002:0000b3dc       $unwind$__crtTerminateProcess 00000001400363dc     LIBCMTD:wincrt0.obj
 0002:0000b3dc       $unwind$_lock              00000001400363dc     LIBCMTD:wincrt0.obj
 0002:0000b3dc       $unwind$_fpmath            00000001400363dc     LIBCMTD:wincrt0.obj
 0002:0000b3dc       $unwind$isdigit            00000001400363dc     LIBCMTD:wincrt0.obj
 0002:0000b3dc       $unwind$_exit              00000001400363dc     LIBCMTD:wincrt0.obj
 0002:0000b3dc       $unwind$__report_securityfailure 00000001400363dc     LIBCMTD:wincrt0.obj
 0002:0000b3e4       $unwind$__tmainCRTStartup  00000001400363e4     LIBCMTD:wincrt0.obj
 0002:0000b404       $unwind$_call_reportfault  0000000140036404     LIBCMTD:invarg.obj
 0002:0000b418       $unwind$_call_matherr      0000000140036418     LIBCMTD:dbgrptw.obj
 0002:0000b418       $unwind$_CrtDbgReport      0000000140036418     LIBCMTD:dbgrptw.obj
 0002:0000b418       $unwind$_CrtDbgReportW     0000000140036418     LIBCMTD:dbgrptw.obj
 0002:0000b420       $unwind$_invoke_watson_if_oneof 0000000140036420     LIBCMTD:dbgrptw.obj
 0002:0000b420       $unwind$write_multi_char   0000000140036420     LIBCMTD:dbgrptw.obj
 0002:0000b428       $unwind$_malloc_dbg        0000000140036428     LIBCMTD:dbgrptw.obj
 0002:0000b428       $unwind$_itow_s            0000000140036428     LIBCMTD:dbgrptw.obj
 0002:0000b428       $unwind$_CrtDbgReportWV    0000000140036428     LIBCMTD:dbgrptw.obj
 0002:0000b428       $unwind$_CrtDbgReportV     0000000140036428     LIBCMTD:dbgrptw.obj
 0002:0000b428       $unwind$_nh_malloc_dbg     0000000140036428     LIBCMTD:dbgrptw.obj
 0002:0000b428       $unwind$_nh_malloc_dbg_impl 0000000140036428     LIBCMTD:dbgrptw.obj
 0002:0000b428       $unwind$_itoa_s            0000000140036428     LIBCMTD:dbgrptw.obj
 0002:0000b430       $unwind$__crtMessageWindowW 0000000140036430     LIBCMTD:dbgrptw.obj
 0002:0000b440       $xdatasym                  0000000140036440     LIBCMTD:memset.obj
 0002:0000b444       $unwind$??0_LocaleUpdate@@QEAA@PEAUlocaleinfo_struct@@@Z 0000000140036444     LIBCMTD:output.obj
 0002:0000b450       $unwind$__shl_12           0000000140036450     LIBCMTD:output.obj
 0002:0000b450       $unwind$get_int_arg        0000000140036450     LIBCMTD:output.obj
 0002:0000b450       $unwind$_FillZeroMan       0000000140036450     LIBCMTD:output.obj
 0002:0000b450       $unwind$?what@exception@std@@UEBAPEBDXZ 0000000140036450     LIBCMTD:output.obj
 0002:0000b450       $unwind$?_ValidateExecute@@YAHP6A_JXZ@Z 0000000140036450     LIBCMTD:output.obj
 0002:0000b450       $unwind$__shr_12           0000000140036450     LIBCMTD:output.obj
 0002:0000b450       $unwind$get_int64_arg      0000000140036450     LIBCMTD:output.obj
 0002:0000b450       $unwind$_MallocaIsSizeInRange 0000000140036450     LIBCMTD:output.obj
 0002:0000b450       $unwind$__removelocaleref  0000000140036450     LIBCMTD:output.obj
 0002:0000b450       $unwind$get_short_arg      0000000140036450     LIBCMTD:output.obj
 0002:0000b450       $unwind$_IsZeroMan         0000000140036450     LIBCMTD:output.obj
 0002:0000b450       $unwind$wcslen             0000000140036450     LIBCMTD:output.obj
 0002:0000b450       $unwind$?setSBCS@@YAXPEAUthreadmbcinfostruct@@@Z 0000000140036450     LIBCMTD:output.obj
 0002:0000b450       $unwind$_positive          0000000140036450     LIBCMTD:output.obj
 0002:0000b450       $unwind$__addlocaleref     0000000140036450     LIBCMTD:output.obj
 0002:0000b458       $unwind$_output_s_l        0000000140036458     LIBCMTD:outputs.obj
 0002:0000b468       $unwind$_GET_RTERRMSG      0000000140036468     LIBCMTD:dosmap.obj
 0002:0000b468       $unwind$_CrtSetCheckCount  0000000140036468     LIBCMTD:dosmap.obj
 0002:0000b468       $unwind$_get_errno_from_oserr 0000000140036468     LIBCMTD:dosmap.obj
 0002:0000b468       $unwind$?CPtoLocaleName@@YAPEB_WH@Z 0000000140036468     LIBCMTD:dosmap.obj
 0002:0000b470       $unwind$_realloc_dbg       0000000140036470     LIBCMTD:dbgheap.obj
 0002:0000b490       $unwind$?fin$0@?0??_Type_info_dtor@type_info@@CAXPEAV1@@Z@4HA 0000000140036490     LIBCMTD:dbgheap.obj
 0002:0000b490       $unwind$_msize_dbg$fin$0   0000000140036490     LIBCMTD:dbgheap.obj
 0002:0000b490       $unwind$fclose$fin$0       0000000140036490     LIBCMTD:dbgheap.obj
 0002:0000b490       $unwind$_ioinit$fin$0      0000000140036490     LIBCMTD:dbgheap.obj
 0002:0000b490       $unwind$_lseeki64$fin$0    0000000140036490     LIBCMTD:dbgheap.obj
 0002:0000b490       $unwind$_realloc_dbg$fin$0 0000000140036490     LIBCMTD:dbgheap.obj
 0002:0000b490       $unwind$raise$fin$0        0000000140036490     LIBCMTD:dbgheap.obj
 0002:0000b490       $unwind$_commit$fin$0      0000000140036490     LIBCMTD:dbgheap.obj
 0002:0000b490       $unwind$_write$fin$0       0000000140036490     LIBCMTD:dbgheap.obj
 0002:0000b490       $unwind$_close$fin$0       0000000140036490     LIBCMTD:dbgheap.obj
 0002:0000b490       $unwind$?fin$0@?0???3@YAXPEAX@Z@4HA 0000000140036490     LIBCMTD:dbgheap.obj
 0002:0000b490       $unwind$_CrtSetDbgFlag$fin$0 0000000140036490     LIBCMTD:dbgheap.obj
 0002:0000b498       $unwind$_free_dbg          0000000140036498     LIBCMTD:dbgheap.obj
 0002:0000b4b8       $unwind$_msize_dbg         00000001400364b8     LIBCMTD:dbgheap.obj
 0002:0000b4d8       $unwind$_CrtCheckMemory    00000001400364d8     LIBCMTD:dbgheap.obj
 0002:0000b4f8       $unwind$_CrtCheckMemory$fin$0 00000001400364f8     LIBCMTD:dbgheap.obj
 0002:0000b500       $unwind$_CrtSetDbgFlag     0000000140036500     LIBCMTD:dbgheap.obj
 0002:0000b520       $unwind$_CrtIsValidPointer 0000000140036520     LIBCMTD:dbgheap.obj
 0002:0000b520       $unwind$CheckBytes         0000000140036520     LIBCMTD:dbgheap.obj
 0002:0000b528       $unwind$_CrtMemCheckpoint  0000000140036528     LIBCMTD:dbgheap.obj
 0002:0000b548       $unwind$_CrtDumpMemoryLeaks 0000000140036548     LIBCMTD:dbgheap.obj
 0002:0000b558       $unwind$_free_dbg_nolock   0000000140036558     LIBCMTD:dbgheap.obj
 0002:0000b560       $unwind$_heap_alloc_dbg_impl 0000000140036560     LIBCMTD:dbgheap.obj
 0002:0000b580       $unwind$_printMemBlockData 0000000140036580     LIBCMTD:dbgheap.obj
 0002:0000b590       $unwind$?__crtIsBadReadPtr@@YAHPEBX_K@Z 0000000140036590     LIBCMTD:dbgheap.obj
 0002:0000b5b0       $unwind$?_CrtMemDumpAllObjectsSince_stat@@YAXPEBU_CrtMemState@@PEAUlocaleinfo_struct@@@Z 00000001400365b0     LIBCMTD:dbgheap.obj
 0002:0000b5d0       $unwind$_handle_errorf     00000001400365d0     LIBCMTD:libm_error.obj
 0002:0000b5e0       $unwind$_raise_excf        00000001400365e0     LIBCMTD:cvt.obj
 0002:0000b5e0       $unwind$_cfltcvt_l         00000001400365e0     LIBCMTD:cvt.obj
 0002:0000b5e0       $unwind$_snprintf_s        00000001400365e0     LIBCMTD:cvt.obj
 0002:0000b5e0       $unwind$_invalid_parameter 00000001400365e0     LIBCMTD:cvt.obj
 0002:0000b5e0       $unwind$?_GetRangeOfTrysToCheck@@YAPEBU_s_TryBlockMapEntry@@PEA_KPEBU_s_FuncInfo@@HHPEAI2PEAU_xDISPATCHER_CONTEXT@@@Z 00000001400365e0     LIBCMTD:cvt.obj
 0002:0000b5e0       $unwind$_snwprintf_s       00000001400365e0     LIBCMTD:cvt.obj
 0002:0000b5e0       $unwind$_calloc_dbg        00000001400365e0     LIBCMTD:cvt.obj
 0002:0000b5e0       $unwind$_cfltcvt           00000001400365e0     LIBCMTD:cvt.obj
 0002:0000b5e0       $unwind$sprintf_s          00000001400365e0     LIBCMTD:cvt.obj
 0002:0000b5e0       $unwind$??$_snprintf_s@$0BAA@@@YAHAEAY0BAA@D_KPEBDZZ 00000001400365e0     LIBCMTD:cvt.obj
 0002:0000b5e0       $unwind$_calloc_dbg_impl   00000001400365e0     LIBCMTD:cvt.obj
 0002:0000b5e0       $unwind$__GSHandlerCheck_SEH 00000001400365e0     LIBCMTD:cvt.obj
 0002:0000b5e8       $unwind$_SetThrowImageBase 00000001400365e8     LIBCMTD:cvt.obj
 0002:0000b5e8       $unwind$free               00000001400365e8     LIBCMTD:cvt.obj
 0002:0000b5e8       $unwind$??1exception@std@@UEAA@XZ 00000001400365e8     LIBCMTD:cvt.obj
 0002:0000b5e8       $unwind$__free_lconv_mon   00000001400365e8     LIBCMTD:cvt.obj
 0002:0000b5e8       $unwind$?__CxxUnhandledExceptionFilter@@YAJPEAU_EXCEPTION_POINTERS@@@Z 00000001400365e8     LIBCMTD:cvt.obj
 0002:0000b5e8       $unwind$_cropzeros         00000001400365e8     LIBCMTD:cvt.obj
 0002:0000b5e8       $unwind$_SetImageBase      00000001400365e8     LIBCMTD:cvt.obj
 0002:0000b5e8       $unwind$_forcdecpt         00000001400365e8     LIBCMTD:cvt.obj
 0002:0000b5e8       $unwind$__crtSetUnhandledExceptionFilter 00000001400365e8     LIBCMTD:cvt.obj
 0002:0000b5e8       $unwind$??1bad_exception@std@@UEAA@XZ 00000001400365e8     LIBCMTD:cvt.obj
 0002:0000b5e8       $unwind$__free_lc_time     00000001400365e8     LIBCMTD:cvt.obj
 0002:0000b5e8       $unwind$_unlock_file       00000001400365e8     LIBCMTD:cvt.obj
 0002:0000b5e8       $unwind$_ValidateImageBase 00000001400365e8     LIBCMTD:cvt.obj
 0002:0000b5e8       $unwind$__crtUnhandledException 00000001400365e8     LIBCMTD:cvt.obj
 0002:0000b5e8       $unwind$_lock_file         00000001400365e8     LIBCMTD:cvt.obj
 0002:0000b5e8       $unwind$?__RethrowException@@YAXPEAUEHExceptionRecord@@@Z 00000001400365e8     LIBCMTD:cvt.obj
 0002:0000b5e8       $unwind$__free_lconv_num   00000001400365e8     LIBCMTD:cvt.obj
 0002:0000b5e8       $unwind$__raise_securityfailure 00000001400365e8     LIBCMTD:cvt.obj
 0002:0000b5e8       $unwind$_CrtIsValidHeapPointer 00000001400365e8     LIBCMTD:cvt.obj
 0002:0000b5e8       $unwind$_initp_eh_hooks    00000001400365e8     LIBCMTD:cvt.obj
 0002:0000b5e8       $unwind$?_Tidy@exception@std@@AEAAXXZ 00000001400365e8     LIBCMTD:cvt.obj
 0002:0000b5e8       $unwind$??1type_info@@UEAA@XZ 00000001400365e8     LIBCMTD:cvt.obj
 0002:0000b5f0       $unwind$_cropzeros_l       00000001400365f0     LIBCMTD:cvt.obj
 0002:0000b5f8       $unwind$_fassign           00000001400365f8     LIBCMTD:cvt.obj
 0002:0000b600       $unwind$_fassign_l         0000000140036600     LIBCMTD:cvt.obj
 0002:0000b600       $unwind$_invoke_watson_if_error 0000000140036600     LIBCMTD:cvt.obj
 0002:0000b600       $unwind$write_string       0000000140036600     LIBCMTD:cvt.obj
 0002:0000b600       $unwind$write_string       0000000140036600     LIBCMTD:cvt.obj
 0002:0000b600       $unwind$write_multi_char   0000000140036600     LIBCMTD:cvt.obj
 0002:0000b608       $unwind$_cftoe_l           0000000140036608     LIBCMTD:cvt.obj
 0002:0000b618       $unwind$_cftoa_l           0000000140036618     LIBCMTD:cvt.obj
 0002:0000b620       $unwind$__C_specific_handler 0000000140036620     LIBCMTD:cvt.obj
 0002:0000b620       $unwind$_cftof2_l          0000000140036620     LIBCMTD:cvt.obj
 0002:0000b628       $unwind$_cftof_l           0000000140036628     LIBCMTD:cvt.obj
 0002:0000b628       $unwind$__crt_atoflt_l     0000000140036628     LIBCMTD:cvt.obj
 0002:0000b638       $unwind$_cftog_l           0000000140036638     LIBCMTD:cvt.obj
 0002:0000b648       $unwind$?_ValidateRead@@YAHPEBXI@Z 0000000140036648     LIBCMTD:winxfltr.obj
 0002:0000b648       $unwind$?strncnt@@YAHPEBDH@Z 0000000140036648     LIBCMTD:winxfltr.obj
 0002:0000b648       $unwind$_ZeroTail          0000000140036648     LIBCMTD:winxfltr.obj
 0002:0000b648       $unwind$siglookup          0000000140036648     LIBCMTD:winxfltr.obj
 0002:0000b648       $unwind$xcptlookup         0000000140036648     LIBCMTD:winxfltr.obj
 0002:0000b648       $unwind$?_ValidateWrite@@YAHPEAXI@Z 0000000140036648     LIBCMTD:winxfltr.obj
 0002:0000b650       $unwind$_freefls           0000000140036650     LIBCMTD:tidtable.obj
 0002:0000b680       $unwind$_initptd           0000000140036680     LIBCMTD:tidtable.obj
 0002:0000b6b0       $unwind$doexit             00000001400366b0     LIBCMTD:crt0dat.obj
 0002:0000b6d0       $unwind$_c_exit            00000001400366d0     LIBCMTD:heapinit.obj
 0002:0000b6d0       $unwind$_GetThrowImageBase 00000001400366d0     LIBCMTD:heapinit.obj
 0002:0000b6d0       $unwind$_flushall          00000001400366d0     LIBCMTD:heapinit.obj
 0002:0000b6d0       $unwind$__CxxSetUnhandledExceptionFilter 00000001400366d0     LIBCMTD:heapinit.obj
 0002:0000b6d0       $unwind$__termconout       00000001400366d0     LIBCMTD:heapinit.obj
 0002:0000b6d0       $unwind$check_managed_app  00000001400366d0     LIBCMTD:heapinit.obj
 0002:0000b6d0       $unwind$__endstdio         00000001400366d0     LIBCMTD:heapinit.obj
 0002:0000b6d0       $unwind$_unlockexit        00000001400366d0     LIBCMTD:heapinit.obj
 0002:0000b6d0       $unwind$_lockexit          00000001400366d0     LIBCMTD:heapinit.obj
 0002:0000b6d0       $unwind$_fptrap            00000001400366d0     LIBCMTD:heapinit.obj
 0002:0000b6d0       $unwind$WinMainCRTStartup  00000001400366d0     LIBCMTD:heapinit.obj
 0002:0000b6d0       $unwind$_FF_MSGBANNER      00000001400366d0     LIBCMTD:heapinit.obj
 0002:0000b6d0       $unwind$_GetImageBase      00000001400366d0     LIBCMTD:heapinit.obj
 0002:0000b6d0       $unwind$_mtterm            00000001400366d0     LIBCMTD:heapinit.obj
 0002:0000b6d0       $unwind$__initmbctable     00000001400366d0     LIBCMTD:heapinit.obj
 0002:0000b6d0       $unwind$_cexit             00000001400366d0     LIBCMTD:heapinit.obj
 0002:0000b6d0       $unwind$__report_rangecheckfailure 00000001400366d0     LIBCMTD:heapinit.obj
 0002:0000b6d0       $unwind$__get_sigabrt      00000001400366d0     LIBCMTD:heapinit.obj
 0002:0000b6d0       $unwind$_heap_init         00000001400366d0     LIBCMTD:heapinit.obj
 0002:0000b6d8       $unwind$_ioinit            00000001400366d8     LIBCMTD:ioinit.obj
 0002:0000b6f8       $unwind$_setargv           00000001400366f8     LIBCMTD:stdargv.obj
 0002:0000b6f8       $unwind$__crtGetEnvironmentStringsA 00000001400366f8     LIBCMTD:stdargv.obj
 0002:0000b700       $unwind$_setenvp           0000000140036700     LIBCMTD:stdenvp.obj
 0002:0000b708       $unwind$_NMSG_WRITE        0000000140036708     LIBCMTD:crt0msg.obj
 0002:0000b718       $unwind$_set_error_mode    0000000140036718     LIBCMTD:errmode.obj
 0002:0000b718       $unwind$_isatty            0000000140036718     LIBCMTD:errmode.obj
 0002:0000b718       $unwind$_get_osfhandle     0000000140036718     LIBCMTD:errmode.obj
 0002:0000b720       $unwind$_RTC_Terminate     0000000140036720     LIBCMTD:initsect.obj
 0002:0000b720       $unwind$_RTC_Initialize    0000000140036720     LIBCMTD:initsect.obj
 0002:0000b72c       $unwind$__crtGetShowWindowMode 000000014003672c     LIBCMTD:winapisupp.obj
 0002:0000b734       $unwind$__crtCapturePreviousContext 0000000140036734     LIBCMTD:winapisupp.obj
 0002:0000b734       $unwind$__crtCaptureCurrentContext 0000000140036734     LIBCMTD:winapisupp.obj
 0002:0000b73c       $unwind$_close_nolock      000000014003673c     LIBCMTD:winapisupp.obj
 0002:0000b73c       $unwind$__crtFlsFree       000000014003673c     LIBCMTD:winapisupp.obj
 0002:0000b73c       $unwind$__crtCorExitProcess 000000014003673c     LIBCMTD:winapisupp.obj
 0002:0000b73c       $unwind$_cinit             000000014003673c     LIBCMTD:winapisupp.obj
 0002:0000b73c       $unwind$tolower            000000014003673c     LIBCMTD:winapisupp.obj
 0002:0000b73c       $unwind$_set_errno_from_matherr 000000014003673c     LIBCMTD:winapisupp.obj
 0002:0000b73c       $unwind$_dosmaperr         000000014003673c     LIBCMTD:winapisupp.obj
 0002:0000b73c       $unwind$_free_osfhnd       000000014003673c     LIBCMTD:winapisupp.obj
 0002:0000b73c       $unwind$__crtFlsGetValue   000000014003673c     LIBCMTD:winapisupp.obj
 0002:0000b744       $unwind$write_char         0000000140036744     LIBCMTD:winapisupp.obj
 0002:0000b744       $unwind$__crtInitializeCriticalSectionEx 0000000140036744     LIBCMTD:winapisupp.obj
 0002:0000b74c       $unwind$__doserrno         000000014003674c     LIBCMTD:winapisupp.obj
 0002:0000b74c       $unwind$_init_pointers     000000014003674c     LIBCMTD:winapisupp.obj
 0002:0000b74c       $unwind$_clrfp             000000014003674c     LIBCMTD:winapisupp.obj
 0002:0000b74c       $unwind$_heapchk           000000014003674c     LIBCMTD:winapisupp.obj
 0002:0000b74c       $unwind$__freeCrtMemory    000000014003674c     LIBCMTD:winapisupp.obj
 0002:0000b74c       $unwind$_errno             000000014003674c     LIBCMTD:winapisupp.obj
 0002:0000b74c       $unwind$_statfp            000000014003674c     LIBCMTD:winapisupp.obj
 0002:0000b74c       $unwind$abort              000000014003674c     LIBCMTD:winapisupp.obj
 0002:0000b74c       $unwind$_mtinitlocks       000000014003674c     LIBCMTD:winapisupp.obj
 0002:0000b74c       $unwind$_getptd            000000014003674c     LIBCMTD:winapisupp.obj
 0002:0000b74c       $unwind$__crtLoadWinApiPointers 000000014003674c     LIBCMTD:winapisupp.obj
 0002:0000b74c       $unwind$__crtIsPackagedApp 000000014003674c     LIBCMTD:winapisupp.obj
 0002:0000b74c       $unwind$_initp_misc_cfltcvt_tab 000000014003674c     LIBCMTD:winapisupp.obj
 0002:0000b74c       $unwind$__IsPackagedAppHelper 000000014003674c     LIBCMTD:winapisupp.obj
 0002:0000b754       $unwind$_lock_file2        0000000140036754     LIBCMTD:_file.obj
 0002:0000b754       $unwind$_unlock_file2      0000000140036754     LIBCMTD:_file.obj
 0002:0000b754       $unwind$??_Gtype_info@@UEAAPEAXI@Z 0000000140036754     LIBCMTD:_file.obj
 0002:0000b754       $unwind$?strrchr@@YAPEADPEADH@Z 0000000140036754     LIBCMTD:_file.obj
 0002:0000b754       $unwind$_shift             0000000140036754     LIBCMTD:_file.obj
 0002:0000b754       $unwind$_ShrMan            0000000140036754     LIBCMTD:_file.obj
 0002:0000b754       $unwind$??_Gexception@std@@UEAAPEAXI@Z 0000000140036754     LIBCMTD:_file.obj
 0002:0000b754       $unwind$??_Gbad_exception@std@@UEAAPEAXI@Z 0000000140036754     LIBCMTD:_file.obj
 0002:0000b75c       $unwind$_write             000000014003675c     LIBCMTD:write.obj
 0002:0000b77c       $unwind$_write_nolock      000000014003677c     LIBCMTD:write.obj
 0002:0000b78c       $unwind$_lseeki64          000000014003678c     LIBCMTD:lseeki64.obj
 0002:0000b7ac       $unwind$_lseeki64_nolock   00000001400367ac     LIBCMTD:lseeki64.obj
 0002:0000b7b4       $unwind$wcscpy_s           00000001400367b4     LIBCMTD:wcscpy_s.obj
 0002:0000b7b4       $unwind$strcpy_s           00000001400367b4     LIBCMTD:wcscpy_s.obj
 0002:0000b7bc       $unwind$_mtinitlocknum     00000001400367bc     LIBCMTD:mlock.obj
 0002:0000b7dc       $unwind$raise              00000001400367dc     LIBCMTD:winsig.obj
 0002:0000b7fc       $unwind$__crtMessageBoxW   00000001400367fc     LIBCMTD:crtmboxw.obj
 0002:0000b810       $unwind$_VCrtDbgReportA    0000000140036810     LIBCMTD:dbgrptt.obj
 0002:0000b848       $unwind$_VCrtDbgReportW    0000000140036848     LIBCMTD:dbgrptt.obj
 0002:0000b880       $unwind$_heap_alloc_dbg_impl$fin$0 0000000140036880     LIBCMTD:dbgrptt.obj
 0002:0000b880       $unwind$_VCrtDbgReportW$fin$1 0000000140036880     LIBCMTD:dbgrptt.obj
 0002:0000b880       $unwind$_VCrtDbgReportW$fin$0 0000000140036880     LIBCMTD:dbgrptt.obj
 0002:0000b880       $unwind$_CallSETranslator$filt$0 0000000140036880     LIBCMTD:dbgrptt.obj
 0002:0000b880       $unwind$?fin$0@?0??_CrtMemDumpAllObjectsSince_stat@@YAXPEBU_CrtMemState@@PEAUlocaleinfo_struct@@@Z@4HA 0000000140036880     LIBCMTD:dbgrptt.obj
 0002:0000b880       $unwind$_CrtMemCheckpoint$fin$0 0000000140036880     LIBCMTD:dbgrptt.obj
 0002:0000b880       $unwind$_VCrtDbgReportA$fin$0 0000000140036880     LIBCMTD:dbgrptt.obj
 0002:0000b880       $unwind$_VCrtDbgReportA$fin$1 0000000140036880     LIBCMTD:dbgrptt.obj
 0002:0000b888       $xdatasym                  0000000140036888     LIBCMTD:chkstk.obj
 0002:0000b890       $unwind$__isa_available_init 0000000140036890     LIBCMTD:cpu_disp.obj
 0002:0000b8a0       $unwind$__updatetlocinfo   00000001400368a0     LIBCMTD:localref.obj
 0002:0000b8c0       $unwind$__updatetmbcinfo   00000001400368c0     LIBCMTD:mbctype.obj
 0002:0000b8e0       $unwind$_setmbcp           00000001400368e0     LIBCMTD:mbctype.obj
 0002:0000b904       $unwind$_setmbcp_nolock    0000000140036904     LIBCMTD:mbctype.obj
 0002:0000b914       $unwind$?getSystemCP@@YAHH@Z 0000000140036914     LIBCMTD:mbctype.obj
 0002:0000b924       $stateUnwindMap$?getSystemCP@@YAHH@Z 0000000140036924     LIBCMTD:mbctype.obj
 0002:0000b92c       $ip2state$?getSystemCP@@YAHH@Z 000000014003692c     LIBCMTD:mbctype.obj
 0002:0000b974       $unwind$?setSBUpLow@@YAXPEAUthreadmbcinfostruct@@@Z 0000000140036974     LIBCMTD:mbctype.obj
 0002:0000b988       $xdatasym                  0000000140036988     LIBCMTD:strlen.obj
 0002:0000b98c       $unwind$_get_printf_count_output 000000014003698c     LIBCMTD:printf.obj
 0002:0000b994       $unwind$wctomb_s           0000000140036994     LIBCMTD:wctomb.obj
 0002:0000b99c       $unwind$_wctomb_s_l        000000014003699c     LIBCMTD:wctomb.obj
 0002:0000b9a4       $unwind$_isctype_l         00000001400369a4     LIBCMTD:isctype.obj
 0002:0000b9ac       $unwind$_chvalidator       00000001400369ac     LIBCMTD:isctype.obj
 0002:0000b9b4       $unwind$_chvalidator_l     00000001400369b4     LIBCMTD:isctype.obj
 0002:0000b9c0       $xdatasym                  00000001400369c0     LIBCMTD:memcpy.obj
 0002:0000b9c4       $unwind$?IsInExceptionSpec@@YAEPEAUEHExceptionRecord@@PEBU_s_ESTypeList@@@Z 00000001400369c4     LIBCMTD:realloc.obj
 0002:0000b9c4       $unwind$_realloc_base      00000001400369c4     LIBCMTD:realloc.obj
 0002:0000b9cc       $unwind$_expand_base       00000001400369cc     LIBCMTD:expand.obj
 0002:0000b9cc       $unwind$_forcdecpt_l       00000001400369cc     LIBCMTD:expand.obj
 0002:0000b9d4       $unwind$__crtMessageWindowA 00000001400369d4     LIBCMTD:dbgrpt.obj
 0002:0000b9e4       $unwind$?_GetEstablisherFrame@@YAPEA_KPEA_KPEAU_xDISPATCHER_CONTEXT@@PEBU_s_FuncInfo@@0@Z 00000001400369e4     LIBCMTD:fpexcept.obj
 0002:0000b9e4       $unwind$parse_cmdline      00000001400369e4     LIBCMTD:fpexcept.obj
 0002:0000b9e4       $unwind$_raise_exc_ex      00000001400369e4     LIBCMTD:fpexcept.obj
 0002:0000b9e4       $unwind$?__SehTransFilter@@YAHPEAU_EXCEPTION_POINTERS@@PEAUEHExceptionRecord@@PEA_KPEAU_CONTEXT@@PEAU_xDISPATCHER_CONTEXT@@PEBU_s_FuncInfo@@PEAH@Z 00000001400369e4     LIBCMTD:fpexcept.obj
 0002:0000b9e4       $unwind$memcpy_s           00000001400369e4     LIBCMTD:fpexcept.obj
 0002:0000b9ec       $unwind$_ctrlfp            00000001400369ec     LIBCMTD:fpctrl.obj
 0002:0000ba0c       $unwind$_isdigit_l         0000000140036a0c     LIBCMTD:_ctype.obj
 0002:0000ba0c       $unwind$_XcptFilter        0000000140036a0c     LIBCMTD:_ctype.obj
 0002:0000ba0c       $unwind$_flswbuf           0000000140036a0c     LIBCMTD:_ctype.obj
 0002:0000ba0c       $unwind$_isleadbyte_l      0000000140036a0c     LIBCMTD:_ctype.obj
 0002:0000ba0c       $unwind$_flsbuf            0000000140036a0c     LIBCMTD:_ctype.obj
 0002:0000ba14       $unwind$_tolower_l         0000000140036a14     LIBCMTD:tolower.obj
 0002:0000ba1c       $unwind$strrchr            0000000140036a1c     LIBCMTD:strrchr.obj
 0002:0000ba24       $unwind$_atodbl_l          0000000140036a24     LIBCMTD:atodbl.obj
 0002:0000ba34       $unwind$_fltout2           0000000140036a34     LIBCMTD:cfout.obj
 0002:0000ba48       $unwind$?terminate@@YAXXZ  0000000140036a48     LIBCMTD:hooks.obj
 0002:0000ba68       $unwind$?_inconsistency@@YAXXZ 0000000140036a68     LIBCMTD:hooks.obj
 0002:0000ba88       $unwind$_IsNonwritableInCurrentImage 0000000140036a88     LIBCMTD:pesect.obj
 0002:0000baa8       $unwind$?dtor$0@?0??getSystemCP@@YAHH@Z@4HA 0000000140036aa8     LIBCMTD:pesect.obj
 0002:0000baa8       $unwind$?dtor$0@?0??x_ismbbtype_l@@YAHPEAUlocaleinfo_struct@@IHH@Z@4HA 0000000140036aa8     LIBCMTD:pesect.obj
 0002:0000baa8       $unwind$_initptd$fin$1     0000000140036aa8     LIBCMTD:pesect.obj
 0002:0000baa8       $unwind$_onexit$fin$0      0000000140036aa8     LIBCMTD:pesect.obj
 0002:0000baa8       $unwind$__lock_fhandle$fin$0 0000000140036aa8     LIBCMTD:pesect.obj
 0002:0000baa8       $unwind$__BuildCatchObject$filt$0 0000000140036aa8     LIBCMTD:pesect.obj
 0002:0000baa8       $unwind$_locterm$fin$0     0000000140036aa8     LIBCMTD:pesect.obj
 0002:0000baa8       $unwind$flsall$fin$0       0000000140036aa8     LIBCMTD:pesect.obj
 0002:0000baa8       $unwind$_setmbcp$fin$0     0000000140036aa8     LIBCMTD:pesect.obj
 0002:0000baa8       $unwind$__updatetmbcinfo$fin$0 0000000140036aa8     LIBCMTD:pesect.obj
 0002:0000baa8       $unwind$__BuildCatchObjectHelper$filt$0 0000000140036aa8     LIBCMTD:pesect.obj
 0002:0000baa8       $unwind$_IsNonwritableInCurrentImage$filt$0 0000000140036aa8     LIBCMTD:pesect.obj
 0002:0000baa8       $unwind$doexit$fin$0       0000000140036aa8     LIBCMTD:pesect.obj
 0002:0000baa8       $unwind$__tmainCRTStartup$filt$0 0000000140036aa8     LIBCMTD:pesect.obj
 0002:0000baa8       $unwind$__DestructExceptionObject$filt$0 0000000140036aa8     LIBCMTD:pesect.obj
 0002:0000baa8       $unwind$flsall$fin$1       0000000140036aa8     LIBCMTD:pesect.obj
 0002:0000baa8       $unwind$?filt$0@?0??__crtIsBadReadPtr@@YAHPEBX_K@Z@4HA 0000000140036aa8     LIBCMTD:pesect.obj
 0002:0000baa8       $unwind$__CxxCallCatchBlock$fin$1 0000000140036aa8     LIBCMTD:pesect.obj
 0002:0000baa8       $unwind$?filt$0@?0??_inconsistency@@YAXXZ@4HA 0000000140036aa8     LIBCMTD:pesect.obj
 0002:0000baa8       $unwind$__FrameUnwindToState$filt$0 0000000140036aa8     LIBCMTD:pesect.obj
 0002:0000baa8       $unwind$_free_dbg$fin$0    0000000140036aa8     LIBCMTD:pesect.obj
 0002:0000baa8       $unwind$__updatetlocinfo$fin$0 0000000140036aa8     LIBCMTD:pesect.obj
 0002:0000baa8       $unwind$_ctrlfp$filt$0     0000000140036aa8     LIBCMTD:pesect.obj
 0002:0000baa8       $unwind$__FrameUnwindToState$fin$1 0000000140036aa8     LIBCMTD:pesect.obj
 0002:0000baa8       $unwind$_freefls$fin$0     0000000140036aa8     LIBCMTD:pesect.obj
 0002:0000baa8       $unwind$_initptd$fin$0     0000000140036aa8     LIBCMTD:pesect.obj
 0002:0000baa8       $unwind$_fcloseall$fin$0   0000000140036aa8     LIBCMTD:pesect.obj
 0002:0000baa8       $unwind$_freefls$fin$1     0000000140036aa8     LIBCMTD:pesect.obj
 0002:0000baa8       $unwind$?filt$0@?0??terminate@@YAXXZ@4HA 0000000140036aa8     LIBCMTD:pesect.obj
 0002:0000baa8       $unwind$_mtinitlocknum$fin$0 0000000140036aa8     LIBCMTD:pesect.obj
 0002:0000baa8       $unwind$__CxxCallCatchBlock$filt$0 0000000140036aa8     LIBCMTD:pesect.obj
 0002:0000bab0       $unwind$_onexit            0000000140036ab0     LIBCMTD:onexit.obj
 0002:0000bad0       $unwind$_wincmdln          0000000140036ad0     LIBCMTD:onexit.obj
 0002:0000bad0       $unwind$__initconout       0000000140036ad0     LIBCMTD:onexit.obj
 0002:0000bad0       $unwind$_getptd_noexit     0000000140036ad0     LIBCMTD:onexit.obj
 0002:0000bad0       $unwind$__initstdio        0000000140036ad0     LIBCMTD:onexit.obj
 0002:0000bad0       $unwind$_mtinit            0000000140036ad0     LIBCMTD:onexit.obj
 0002:0000bad0       $unwind$__security_init_cookie 0000000140036ad0     LIBCMTD:onexit.obj
 0002:0000bad0       $unwind$_is_LFH_enabled    0000000140036ad0     LIBCMTD:onexit.obj
 0002:0000bad0       $unwind$_mtdeletelocks     0000000140036ad0     LIBCMTD:onexit.obj
 0002:0000bad0       $unwind$__onexitinit       0000000140036ad0     LIBCMTD:onexit.obj
 0002:0000bad8       $unwind$_onexit_nolock     0000000140036ad8     LIBCMTD:onexit.obj
 0002:0000bae0       $xdatasym                  0000000140036ae0     LIBCMTD:jmpuwind.obj
 0002:0000baf4       $unwind$?x_ismbbtype_l@@YAHPEAUlocaleinfo_struct@@IHH@Z 0000000140036af4     LIBCMTD:ismbbyte.obj
 0002:0000bb04       $stateUnwindMap$?x_ismbbtype_l@@YAHPEAUlocaleinfo_struct@@IHH@Z 0000000140036b04     LIBCMTD:ismbbyte.obj
 0002:0000bb0c       $ip2state$?x_ismbbtype_l@@YAHPEAUlocaleinfo_struct@@IHH@Z 0000000140036b0c     LIBCMTD:ismbbyte.obj
 0002:0000bb24       $unwind$strcat_s           0000000140036b24     LIBCMTD:wcscat_s.obj
 0002:0000bb24       $unwind$wcscat_s           0000000140036b24     LIBCMTD:wcscat_s.obj
 0002:0000bb2c       $unwind$_mbtowc_l          0000000140036b2c     LIBCMTD:wcsncpy_s.obj
 0002:0000bb2c       $unwind$_wcstombs_s_l      0000000140036b2c     LIBCMTD:wcsncpy_s.obj
 0002:0000bb2c       $unwind$__crtLCMapStringA  0000000140036b2c     LIBCMTD:wcsncpy_s.obj
 0002:0000bb2c       $unwind$wcsncpy_s          0000000140036b2c     LIBCMTD:wcsncpy_s.obj
 0002:0000bb34       $unwind$_fcloseall         0000000140036b34     LIBCMTD:closeall.obj
 0002:0000bb54       $unwind$__crtMessageBoxWaitThreadW 0000000140036b54     LIBCMTD:fflush.obj
 0002:0000bb54       $unwind$_freebuf           0000000140036b54     LIBCMTD:fflush.obj
 0002:0000bb54       $unwind$_heap_alloc_base   0000000140036b54     LIBCMTD:fflush.obj
 0002:0000bb54       $unwind$atexit             0000000140036b54     LIBCMTD:fflush.obj
 0002:0000bb54       $unwind$_set_statfp        0000000140036b54     LIBCMTD:fflush.obj
 0002:0000bb54       $unwind$_fflush_nolock     0000000140036b54     LIBCMTD:fflush.obj
 0002:0000bb54       $unwind$_flush             0000000140036b54     LIBCMTD:fflush.obj
 0002:0000bb54       $unwind$_malloc_base       0000000140036b54     LIBCMTD:fflush.obj
 0002:0000bb54       $unwind$_callnewh          0000000140036b54     LIBCMTD:fflush.obj
 0002:0000bb54       $unwind$_free_base         0000000140036b54     LIBCMTD:fflush.obj
 0002:0000bb54       $unwind$__crtFlsAlloc      0000000140036b54     LIBCMTD:fflush.obj
 0002:0000bb54       $unwind$__crtDownlevelLocaleNameToLCID 0000000140036b54     LIBCMTD:fflush.obj
 0002:0000bb54       $unwind$_FindAndUnlinkFrame 0000000140036b54     LIBCMTD:fflush.obj
 0002:0000bb54       $unwind$_IsExceptionObjectToBeDestroyed 0000000140036b54     LIBCMTD:fflush.obj
 0002:0000bb54       $unwind$__report_gsfailure 0000000140036b54     LIBCMTD:fflush.obj
 0002:0000bb5c       $unwind$flsall             0000000140036b5c     LIBCMTD:fflush.obj
 0002:0000bb8c       $unwind$__lock_fhandle     0000000140036b8c     LIBCMTD:osfinfo.obj
 0002:0000bbac       $unwind$_vsnwprintf_s_l    0000000140036bac     LIBCMTD:vswprnc.obj
 0002:0000bbac       $unwind$_fptostr           0000000140036bac     LIBCMTD:vswprnc.obj
 0002:0000bbac       $unwind$_vsnprintf_s_l     0000000140036bac     LIBCMTD:vswprnc.obj
 0002:0000bbac       $unwind$realloc_help       0000000140036bac     LIBCMTD:vswprnc.obj
 0002:0000bbac       $unwind$__InternalCxxFrameHandler 0000000140036bac     LIBCMTD:vswprnc.obj
 0002:0000bbb4       $unwind$xtoa_s             0000000140036bb4     LIBCMTD:xtoas.obj
 0002:0000bbb4       $unwind$xtow_s             0000000140036bb4     LIBCMTD:xtoas.obj
 0002:0000bbbc       $unwind$wcstombs_s         0000000140036bbc     LIBCMTD:mbstowcs.obj
 0002:0000bbbc       $unwind$_cftoe             0000000140036bbc     LIBCMTD:mbstowcs.obj
 0002:0000bbbc       $unwind$_vsnwprintf_s      0000000140036bbc     LIBCMTD:mbstowcs.obj
 0002:0000bbbc       $unwind$_vsnprintf_s       0000000140036bbc     LIBCMTD:mbstowcs.obj
 0002:0000bbbc       $unwind$mbstowcs_s         0000000140036bbc     LIBCMTD:mbstowcs.obj
 0002:0000bbbc       $unwind$?__SetUnwindTryBlock@@YAXPEA_KPEAU_xDISPATCHER_CONTEXT@@PEBU_s_FuncInfo@@H@Z 0000000140036bbc     LIBCMTD:mbstowcs.obj
 0002:0000bbc4       $unwind$_mbstowcs_s_l      0000000140036bc4     LIBCMTD:mbstowcs.obj
 0002:0000bbc4       $unwind$_cftoe2_l          0000000140036bc4     LIBCMTD:mbstowcs.obj
 0002:0000bbcc       $unwind$_mbstowcs_l_helper 0000000140036bcc     LIBCMTD:mbstowcs.obj
 0002:0000bbd4       $unwind$__AdjustPointer    0000000140036bd4     LIBCMTD:wcstombs.obj
 0002:0000bbd4       $unwind$?wcsncnt@@YA_KPEB_W_K@Z 0000000140036bd4     LIBCMTD:wcstombs.obj
 0002:0000bbdc       $unwind$_wcstombs_l_helper 0000000140036bdc     LIBCMTD:wcstombs.obj
 0002:0000bbec       $unwind$?FindHandlerForForeignException@@YAXPEAUEHExceptionRecord@@PEA_KPEAU_CONTEXT@@PEAU_xDISPATCHER_CONTEXT@@PEBU_s_FuncInfo@@HH1@Z 0000000140036bec     LIBCMTD:a_map.obj
 0002:0000bbec       $unwind$?__crtLCMapStringA_stat@@YAHPEAUlocaleinfo_struct@@PEB_WKPEBDHPEADHHH@Z 0000000140036bec     LIBCMTD:a_map.obj
 0002:0000bbf4       $unwind$__crtGetStringTypeA 0000000140036bf4     LIBCMTD:a_str.obj
 0002:0000bbfc       $unwind$?__crtGetStringTypeA_stat@@YAHPEAUlocaleinfo_struct@@KPEBDHPEAGHH@Z 0000000140036bfc     LIBCMTD:a_str.obj
 0002:0000bbfc       $unwind$__crtLCMapStringEx 0000000140036bfc     LIBCMTD:a_str.obj
 0002:0000bc04       $unwind$?__FrameUnwindToEmptyState@@YAXPEA_KPEAU_xDISPATCHER_CONTEXT@@PEBU_s_FuncInfo@@@Z 0000000140036c04     LIBCMTD:trnsctrl.obj
 0002:0000bc0c       $unwind$_UnwindNestedFrames 0000000140036c0c     LIBCMTD:trnsctrl.obj
 0002:0000bc20       $unwind$_CallSETranslator  0000000140036c20     LIBCMTD:trnsctrl.obj
 0002:0000bc40       $unwind$?_CatchTryBlock@@YAPEBU_s_TryBlockMapEntry@@PEBU_s_FuncInfo@@H@Z 0000000140036c40     LIBCMTD:trnsctrl.obj
 0002:0000bc40       $unwind$_exception_enabled 0000000140036c40     LIBCMTD:trnsctrl.obj
 0002:0000bc40       $unwind$__crtFlsSetValue   0000000140036c40     LIBCMTD:trnsctrl.obj
 0002:0000bc48       $unwind$_vsprintf_s_l      0000000140036c48     LIBCMTD:trnsctrl.obj
 0002:0000bc48       $unwind$?CatchIt@@YAXPEAUEHExceptionRecord@@PEA_KPEAU_CONTEXT@@PEAU_xDISPATCHER_CONTEXT@@PEBU_s_FuncInfo@@PEBU_s_HandlerType@@PEBU_s_CatchableType@@PEBU_s_TryBlockMapEntry@@H1EE@Z 0000000140036c48     LIBCMTD:trnsctrl.obj
 0002:0000bc48       $unwind$__CxxFrameHandler3 0000000140036c48     LIBCMTD:trnsctrl.obj
 0002:0000bc50       $unwind$_locterm           0000000140036c50     LIBCMTD:wsetloca.obj
 0002:0000bc70       $xdatasym                  0000000140036c70     LIBCMTD:fpsr.obj
 0002:0000bc78       $unwind$??0exception@std@@QEAA@AEBQEBD@Z 0000000140036c78     LIBCMTD:intrncvt.obj
 0002:0000bc78       $unwind$_ld12tod           0000000140036c78     LIBCMTD:intrncvt.obj
 0002:0000bc78       $unwind$??0exception@std@@QEAA@AEBV01@@Z 0000000140036c78     LIBCMTD:intrncvt.obj
 0002:0000bc78       $unwind$__dtold            0000000140036c78     LIBCMTD:intrncvt.obj
 0002:0000bc78       $unwind$??0bad_exception@std@@QEAA@AEBV01@@Z 0000000140036c78     LIBCMTD:intrncvt.obj
 0002:0000bc78       $unwind$_initterm          0000000140036c78     LIBCMTD:intrncvt.obj
 0002:0000bc78       $unwind$?__StateFromControlPc@@YAHPEBU_s_FuncInfo@@PEAU_xDISPATCHER_CONTEXT@@@Z 0000000140036c78     LIBCMTD:intrncvt.obj
 0002:0000bc78       $unwind$_ld12tof           0000000140036c78     LIBCMTD:intrncvt.obj
 0002:0000bc78       $unwind$_FindPESection     0000000140036c78     LIBCMTD:intrncvt.obj
 0002:0000bc78       $unwind$_fd_int            0000000140036c78     LIBCMTD:intrncvt.obj
 0002:0000bc78       $unwind$??0bad_exception@std@@QEAA@PEBD@Z 0000000140036c78     LIBCMTD:intrncvt.obj
 0002:0000bc78       $unwind$??4exception@std@@QEAAAEAV01@AEBV01@@Z 0000000140036c78     LIBCMTD:intrncvt.obj
 0002:0000bc78       $unwind$_CopyMan           0000000140036c78     LIBCMTD:intrncvt.obj
 0002:0000bc80       $unwind$__addl             0000000140036c80     LIBCMTD:intrncvt.obj
 0002:0000bc88       $unwind$_IncMan            0000000140036c88     LIBCMTD:intrncvt.obj
 0002:0000bc88       $unwind$_RoundMan          0000000140036c88     LIBCMTD:intrncvt.obj
 0002:0000bc90       $unwind$_ld12cvt           0000000140036c90     LIBCMTD:intrncvt.obj
 0002:0000bca0       $unwind$__strgtold12_l     0000000140036ca0     LIBCMTD:strgtold.obj
 0002:0000bcb0       $unwind$__multtenpow12     0000000140036cb0     LIBCMTD:strgtold.obj
 0002:0000bcc4       $unwind$__ld12mul          0000000140036cc4     LIBCMTD:strgtold.obj
 0002:0000bcd4       $unwind$$I10_OUTPUT        0000000140036cd4     LIBCMTD:x10fout.obj
 0002:0000bce8       $unwind$mbtowc             0000000140036ce8     LIBCMTD:winapinls.obj
 0002:0000bce8       $unwind$?__GetCurrentState@@YAHPEA_KPEAU_xDISPATCHER_CONTEXT@@PEBU_s_FuncInfo@@@Z 0000000140036ce8     LIBCMTD:winapinls.obj
 0002:0000bce8       $unwind$__wcsnicmp_ascii   0000000140036ce8     LIBCMTD:winapinls.obj
 0002:0000bce8       $unwind$write_char         0000000140036ce8     LIBCMTD:winapinls.obj
 0002:0000bce8       $unwind$_atoflt_l          0000000140036ce8     LIBCMTD:winapinls.obj
 0002:0000bcf0       $unwind$fclose             0000000140036cf0     LIBCMTD:fclose.obj
 0002:0000bd10       $unwind$_fclose_nolock     0000000140036d10     LIBCMTD:fclose.obj
 0002:0000bd10       $unwind$_CrtMemDumpAllObjectsSince 0000000140036d10     LIBCMTD:fclose.obj
 0002:0000bd18       $unwind$_commit            0000000140036d18     LIBCMTD:commit.obj
 0002:0000bd38       $unwind$_woutput_s_l       0000000140036d38     LIBCMTD:woutputs.obj
 0002:0000bd48       $unwind$_fputwc_nolock     0000000140036d48     LIBCMTD:fputwc.obj
 0002:0000bd58       $unwind$__CxxCallCatchBlock 0000000140036d58     LIBCMTD:frame.obj
 0002:0000bd88       $unwind$__FrameUnwindToState 0000000140036d88     LIBCMTD:frame.obj
 0002:0000bdb8       $unwind$?FindHandler@@YAXPEAUEHExceptionRecord@@PEA_KPEAU_CONTEXT@@PEAU_xDISPATCHER_CONTEXT@@PEBU_s_FuncInfo@@EH1@Z 0000000140036db8     LIBCMTD:frame.obj
 0002:0000bdc0       $unwind$__BuildCatchObject 0000000140036dc0     LIBCMTD:frame.obj
 0002:0000bde0       $unwind$__TypeMatch        0000000140036de0     LIBCMTD:frame.obj
 0002:0000bde0       $unwind$__GSHandlerCheckCommon 0000000140036de0     LIBCMTD:frame.obj
 0002:0000bde8       $unwind$__DestructExceptionObject 0000000140036de8     LIBCMTD:frame.obj
 0002:0000be08       $unwind$_fileno            0000000140036e08     LIBCMTD:frame.obj
 0002:0000be08       $unwind$malloc             0000000140036e08     LIBCMTD:frame.obj
 0002:0000be08       $unwind$__freetlocinfo     0000000140036e08     LIBCMTD:frame.obj
 0002:0000be08       $unwind$?Is_bad_exception_allowed@@YAEPEBU_s_ESTypeList@@@Z 0000000140036e08     LIBCMTD:frame.obj
 0002:0000be08       $unwind$__FrameUnwindFilter 0000000140036e08     LIBCMTD:frame.obj
 0002:0000be08       $unwind$GetTableIndexFromLocaleName 0000000140036e08     LIBCMTD:frame.obj
 0002:0000be08       $unwind$_putwch_nolock     0000000140036e08     LIBCMTD:frame.obj
 0002:0000be08       $unwind$_getbuf            0000000140036e08     LIBCMTD:frame.obj
 0002:0000be08       $unwind$_freea             0000000140036e08     LIBCMTD:frame.obj
 0002:0000be10       $unwind$__BuildCatchObjectHelper 0000000140036e10     LIBCMTD:frame.obj
 0002:0000be30       $unwind$?__GetUnwindTryBlock@@YAHPEA_KPEAU_xDISPATCHER_CONTEXT@@PEBU_s_FuncInfo@@@Z 0000000140036e30     LIBCMTD:ehstate.obj
 0002:0000be30       $unwind$?__StateFromIp@@YAHPEBU_s_FuncInfo@@PEAU_xDISPATCHER_CONTEXT@@_J@Z 0000000140036e30     LIBCMTD:ehstate.obj
 0002:0000be30       $unwind$?ExFilterRethrow@@YAHPEAU_EXCEPTION_POINTERS@@PEAUEHExceptionRecord@@PEAH@Z 0000000140036e30     LIBCMTD:ehstate.obj
 0002:0000be38       $xdatasym                  0000000140036e38     LIBCMTD:memcmp.obj
 0002:0000be3c       $unwind$__mtold12          0000000140036e3c     LIBCMTD:mantold.obj
 0002:0000be50       $unwind$_close             0000000140036e50     LIBCMTD:close.obj
 0002:0000be70       $unwind$??3@YAXPEAX@Z      0000000140036e70     LIBCMTD:dbgdel.obj
 0002:0000be90       $xdatasym                  0000000140036e90     LIBCMTD:strcmp.obj
 0002:0000be98       $xdatasym                  0000000140036e98     LIBCMTD:handlers.obj
 0002:0000bea0       $unwind$?_Copy_str@exception@std@@AEAAXPEBD@Z 0000000140036ea0     LIBCMTD:typinfo.obj
 0002:0000bea0       $unwind$_CreateFrameInfo   0000000140036ea0     LIBCMTD:typinfo.obj
 0002:0000bea0       $unwind$__add_12           0000000140036ea0     LIBCMTD:typinfo.obj
 0002:0000bea0       $unwind$??8type_info@@QEBA_NAEBV0@@Z 0000000140036ea0     LIBCMTD:typinfo.obj
 0002:0000bea0       $unwind$_initterm_e        0000000140036ea0     LIBCMTD:typinfo.obj
 0002:0000bea0       $unwind$_updatetlocinfoEx_nolock 0000000140036ea0     LIBCMTD:typinfo.obj
 0002:0000bea8       $unwind$_CxxThrowException 0000000140036ea8     LIBCMTD:throw.obj
 0002:0000beb4       $unwind$?_Type_info_dtor@type_info@@CAXPEAV1@@Z 0000000140036eb4     LIBCMTD:typname.obj
 0002:0000c354       .idata$6                   0000000140037354     User32:USER32.dll
 0002:0000c370       .idata$6                   0000000140037370     gdi32:GDI32.dll
 0002:0000c39c       .idata$6                   000000014003739c     winmm:WINMM.dll
 0002:0000c924       .idata$6                   0000000140037924     kernel32:KERNEL32.dll
 0003:00000018       dotdotdot                  0000000140038018     LIBCMTD:dbgrptw.obj
 0003:00000030       errtable                   0000000140038030     LIBCMTD:dosmap.obj
 0003:00000198       ErrnoNoMem                 0000000140038198     LIBCMTD:dosmap.obj
 0003:0000019c       DoserrorNoMem              000000014003819c     LIBCMTD:dosmap.obj
 0003:000001b0       _lRequestCurr              00000001400381b0     LIBCMTD:dbgheap.obj
 0003:000001b4       _bNoMansLandFill           00000001400381b4     LIBCMTD:dbgheap.obj
 0003:000001b5       _bAlignLandFill            00000001400381b5     LIBCMTD:dbgheap.obj
 0003:000001b6       _bDeadLandFill             00000001400381b6     LIBCMTD:dbgheap.obj
 0003:000001b7       _bCleanLandFill            00000001400381b7     LIBCMTD:dbgheap.obj
 0003:00000278       ?isPackaged@?1??__crtIsPackagedApp@@9@9 0000000140038278     LIBCMTD:winapisupp.obj
 0003:00000650       _locktable                 0000000140038650     LIBCMTD:mlock.obj
 0003:00000d08       __rgctypeflag              0000000140038d08     LIBCMTD:mbctype.obj
 0003:00000d10       __rgcode_page_info         0000000140038d10     LIBCMTD:mbctype.obj
 0003:00001250       dotdotdot                  0000000140039250     LIBCMTD:dbgrpt.obj
 0003:00001260       ?_names@?1??_get_fname@@9@9 0000000140039260     LIBCMTD:fpexcept.obj
 0003:00001430       ?dazSupported@?1??_ctrlfp@@9@9 0000000140039430     LIBCMTD:fpctrl.obj
 0003:00001500       _ctype_loc_style           0000000140039500     LIBCMTD:wsetloca.obj
 0003:00001530       DoubleFormat               0000000140039530     LIBCMTD:intrncvt.obj
 0003:00001548       FloatFormat                0000000140039548     LIBCMTD:intrncvt.obj
 0003:000018c0       MainScreenBuffer           00000001400398c0     win32_pong.obj
 0003:00001908       Running                    0000000140039908     win32_pong.obj
 0003:00001909       Playing                    0000000140039909     win32_pong.obj
 0003:0000192c       check_frequency            000000014003992c     LIBCMTD:dbgheap.obj
 0003:00001938       check_counter              0000000140039938     LIBCMTD:dbgheap.obj
 0003:00001940       _lTotalAlloc               0000000140039940     LIBCMTD:dbgheap.obj
 0003:00001948       _lCurAlloc                 0000000140039948     LIBCMTD:dbgheap.obj
 0003:00001950       _lMaxAlloc                 0000000140039950     LIBCMTD:dbgheap.obj
 0003:00001958       _pFirstBlock               0000000140039958     LIBCMTD:dbgheap.obj
 0003:00001960       _pLastBlock                0000000140039960     LIBCMTD:dbgheap.obj
 0003:00001970       GS_ExceptionRecord         0000000140039970     LIBCMTD:gs_report.obj
 0003:00001a10       GS_ContextRecord           0000000140039a10     LIBCMTD:gs_report.obj
 0003:00001ee0       DebuggerWasPresent         0000000140039ee0     LIBCMTD:gs_report.obj
 0003:00002150       ?_pgmname@?1??_setargv@@9@9 000000014003a150     LIBCMTD:stdargv.obj
 0003:00002270       ?outmsg@?L@??_NMSG_WRITE@@9@9 000000014003a270     LIBCMTD:crt0msg.obj
 0003:000028a0       lclcritsects               000000014003a8a0     LIBCMTD:mlock.obj
 0003:00002af8       ctrlc_action               000000014003aaf8     LIBCMTD:winsig.obj
 0003:00002b00       ctrlbreak_action           000000014003ab00     LIBCMTD:winsig.obj
 0003:00002b08       abort_action               000000014003ab08     LIBCMTD:winsig.obj
 0003:00002b10       term_action                000000014003ab10     LIBCMTD:winsig.obj
 0003:00002b18       ConsoleCtrlHandler_Installed 000000014003ab18     LIBCMTD:winsig.obj
 0003:00002b20       ?pfnMessageBox@?1??__crtMessageBoxW@@9@9 000000014003ab20     LIBCMTD:crtmboxw.obj
 0003:00002b28       ?pfnGetActiveWindow@?1??__crtMessageBoxW@@9@9 000000014003ab28     LIBCMTD:crtmboxw.obj
 0003:00002b30       ?pfnGetLastActivePopup@?1??__crtMessageBoxW@@9@9 000000014003ab30     LIBCMTD:crtmboxw.obj
 0003:00002b38       ?pfnGetProcessWindowStation@?1??__crtMessageBoxW@@9@9 000000014003ab38     LIBCMTD:crtmboxw.obj
 0003:00002b40       ?pfnGetUserObjectInformation@?1??__crtMessageBoxW@@9@9 000000014003ab40     LIBCMTD:crtmboxw.obj
 0003:00002b70       fSystemSet                 000000014003ab70     LIBCMTD:mbctype.obj
 0003:00002b78       __enable_percent_n         000000014003ab78     LIBCMTD:printf.obj
 0003:00002ba0       g_pfnRtlGenRandom          000000014003aba0     LIBCMTD:rand_s.obj
 0003:00002bc8       __crtCallProc              000000014003abc8     LIBCMTD:winapinls.obj
 0003:00002bd8       __type_info_root_node      000000014003abd8     LIBCMTD:typname.obj
 0003:00002c30       heap                       000000014003ac30     LIBCMTD:undname.obj
 0004:00000000       $pdata$WinMain             000000014003c000     win32_pong.obj
 0004:0000000c       $pdata$??H@YA?ATvect2@@T0@0@Z 000000014003c00c     win32_pong.obj
 0004:00000018       $pdata$??Y@YAAEATvect2@@AEAT0@T0@@Z 000000014003c018     win32_pong.obj
 0004:00000024       $pdata$??G@YA?ATvect2@@T0@0@Z 000000014003c024     win32_pong.obj
 0004:00000030       $pdata$??D@YA?ATvect2@@MT0@@Z 000000014003c030     win32_pong.obj
 0004:0000003c       $pdata$??X@YAAEATvect2@@AEAT0@M@Z 000000014003c03c     win32_pong.obj
 0004:00000048       $pdata$?DotProduct@@YAMTvect2@@0@Z 000000014003c048     win32_pong.obj
 0004:00000054       $pdata$?RoundToInt@@YAHM@Z 000000014003c054     win32_pong.obj
 0004:00000060       $pdata$?FloorFloat@@YAHM@Z 000000014003c060     win32_pong.obj
 0004:0000006c       $pdata$?GetPixelPositionFromRelativePosition@@YA?ATvect2@@Urelative_position@@Utile_map@@@Z 000000014003c06c     win32_pong.obj
 0004:00000078       $pdata$?DrawRectangle@@YAXTvect2@@0PEAUgame_screen_buffer@@H@Z 000000014003c078     win32_pong.obj
 0004:00000084       $pdata$?DrawTileMap@@YAXUtile_map@@PEAUgame_screen_buffer@@@Z 000000014003c084     win32_pong.obj
 0004:00000090       $pdata$?DetermineNewTile@@YA?AUrelative_position@@U1@Utile_map@@@Z 000000014003c090     win32_pong.obj
 0004:0000009c       $pdata$?GetPlayerBottomRight@@YA?AUrelative_position@@Uplayer@@Utile_map@@@Z 000000014003c09c     win32_pong.obj
 0004:000000a8       $pdata$?DEBUGDrawContainerTile@@YAXUrelative_position@@Utile_map@@PEAUgame_screen_buffer@@@Z 000000014003c0a8     win32_pong.obj
 0004:000000b4       $pdata$?GetPositionDiff@@YA?ATvect2@@T1@M0@Z 000000014003c0b4     win32_pong.obj
 0004:000000c0       $pdata$?GetPlayerAcceleration@@YA?ATvect2@@Ugame_controller_input@@@Z 000000014003c0c0     win32_pong.obj
 0004:000000cc       $pdata$?MovePlayer@@YAXUgame_controller_input@@PEAUgame_state@@Utile_map@@M@Z 000000014003c0cc     win32_pong.obj
 0004:000000d8       $pdata$?GameUpdateRender@@YAXUgame_sound_data@@Ugame_screen_buffer@@Ugame_controller_input@@PEAUgame_memory@@M@Z 000000014003c0d8     win32_pong.obj
 0004:000000e4       $pdata$?InitGameSound@@YAXPEAUSound_Data@@PEAUgame_sound_data@@H@Z 000000014003c0e4     win32_pong.obj
 0004:000000f0       $pdata$?ProcessMessageQueue@@YAXPEAUgame_controller_input@@@Z 000000014003c0f0     win32_pong.obj
 0004:000000fc       $pdata$?GetTimeCount@@YA?AT_LARGE_INTEGER@@XZ 000000014003c0fc     win32_pong.obj
 0004:00000108       $pdata$?GetPerformanceFrequency@@YA_KXZ 000000014003c108     win32_pong.obj
 0004:00000114       $pdata$?GetTimeElapsed@@YAMT_LARGE_INTEGER@@0@Z 000000014003c114     win32_pong.obj
 0004:00000120       $pdata$?FillSoundBuffer@@YAXPEAUSound_Data@@PEAUgame_sound_data@@HH@Z 000000014003c120     win32_pong.obj
 0004:0000012c       $pdata$?InitDSound@@YAXPEAUHWND__@@HPEAUSound_Data@@@Z 000000014003c12c     win32_pong.obj
 0004:00000138       $pdata$?UpdateScreen@@YAXPEAUScreenBuffer@@PEAUHDC__@@@Z 000000014003c138     win32_pong.obj
 0004:00000144       $pdata$?ResizeClientBuffer@@YAXPEAUScreenBuffer@@JJ@Z 000000014003c144     win32_pong.obj
 0004:00000150       $pdata$?MainWindowCallback@@YA_JPEAUHWND__@@I_K_J@Z 000000014003c150     win32_pong.obj
 0004:0000015c       $pdata$??$_snprintf_s@$0BAA@@@YAHAEAY0BAA@D_KPEBDZZ 000000014003c15c     win32_pong.obj
 0004:00000168       $pdata$?DrawPlayer@@YAXUplayer@@Utile_map@@PEAUgame_screen_buffer@@@Z 000000014003c168     win32_pong.obj
 0004:00000174       $pdata$?floor@@YAMM@Z      000000014003c174     win32_pong.obj
 0004:00000180       $pdata$roundf              000000014003c180     LIBCMTD:roundf.obj
 0004:0000018c       $pdata$_vsnprintf_helper   000000014003c18c     LIBCMTD:vsnprnc.obj
 0004:00000198       $pdata$_vsnprintf_s        000000014003c198     LIBCMTD:vsnprnc.obj
 0004:000001a4       $pdata$_vsnprintf_s_l      000000014003c1a4     LIBCMTD:vsnprnc.obj
 0004:000001b0       $pdata$_vsprintf_s_l       000000014003c1b0     LIBCMTD:vsnprnc.obj
 0004:000001bc       $pdata$__GSHandlerCheck    000000014003c1bc     LIBCMTD:gshandler.obj
 0004:000001c8       $pdata$__GSHandlerCheckCommon 000000014003c1c8     LIBCMTD:gshandler.obj
 0004:000001e0       $pdata$floorf              000000014003c1e0     LIBCMTD:floorf.obj
 0004:000001ec       $pdata$_fpmath             000000014003c1ec     LIBCMTD:fpinit.obj
 0004:000001f8       $pdata$WinMainCRTStartup   000000014003c1f8     LIBCMTD:wincrt0.obj
 0004:00000204       $pdata$__tmainCRTStartup   000000014003c204     LIBCMTD:wincrt0.obj
 0004:00000210       $pdata$check_managed_app   000000014003c210     LIBCMTD:wincrt0.obj
 0004:0000021c       $pdata$fast_error_exit     000000014003c21c     LIBCMTD:wincrt0.obj
 0004:00000228       $pdata$_fd_int             000000014003c228     LIBCMTD:_test.obj
 0004:00000234       $pdata$_call_reportfault   000000014003c234     LIBCMTD:invarg.obj
 0004:00000240       $pdata$_invalid_parameter  000000014003c240     LIBCMTD:invarg.obj
 0004:0000024c       $pdata$_invoke_watson      000000014003c24c     LIBCMTD:invarg.obj
 0004:00000258       $pdata$_flsbuf             000000014003c258     LIBCMTD:_flsbuf.obj
 0004:00000264       $pdata$_CrtDbgReportW      000000014003c264     LIBCMTD:dbgrptw.obj
 0004:00000270       $pdata$_CrtDbgReportWV     000000014003c270     LIBCMTD:dbgrptw.obj
 0004:0000027c       $pdata$__crtMessageWindowW 000000014003c27c     LIBCMTD:dbgrptw.obj
 0004:00000288       $pdata$_invoke_watson_if_error 000000014003c288     LIBCMTD:dbgrptw.obj
 0004:00000294       $pdata$_invoke_watson_if_oneof 000000014003c294     LIBCMTD:dbgrptw.obj
 0004:000002ac       $pdata$??0_LocaleUpdate@@QEAA@PEAUlocaleinfo_struct@@@Z 000000014003c2ac     LIBCMTD:output.obj
 0004:000002b8       $pdata$get_int64_arg       000000014003c2b8     LIBCMTD:output.obj
 0004:000002c4       $pdata$get_int_arg         000000014003c2c4     LIBCMTD:output.obj
 0004:000002d0       $pdata$get_short_arg       000000014003c2d0     LIBCMTD:output.obj
 0004:000002dc       $pdata$_output_s_l         000000014003c2dc     LIBCMTD:outputs.obj
 0004:000002e8       $pdata$write_char          000000014003c2e8     LIBCMTD:outputs.obj
 0004:000002f4       $pdata$write_multi_char    000000014003c2f4     LIBCMTD:outputs.obj
 0004:00000300       $pdata$write_string        000000014003c300     LIBCMTD:outputs.obj
 0004:0000030c       $pdata$__doserrno          000000014003c30c     LIBCMTD:dosmap.obj
 0004:00000318       $pdata$_dosmaperr          000000014003c318     LIBCMTD:dosmap.obj
 0004:00000324       $pdata$_errno              000000014003c324     LIBCMTD:dosmap.obj
 0004:00000330       $pdata$_get_errno_from_oserr 000000014003c330     LIBCMTD:dosmap.obj
 0004:0000033c       $pdata$?_CrtMemDumpAllObjectsSince_stat@@YAXPEBU_CrtMemState@@PEAUlocaleinfo_struct@@@Z 000000014003c33c     LIBCMTD:dbgheap.obj
 0004:00000348       $pdata$?__crtIsBadReadPtr@@YAHPEBX_K@Z 000000014003c348     LIBCMTD:dbgheap.obj
 0004:00000354       $pdata$CheckBytes          000000014003c354     LIBCMTD:dbgheap.obj
 0004:00000360       $pdata$_CrtCheckMemory     000000014003c360     LIBCMTD:dbgheap.obj
 0004:0000036c       $pdata$_CrtDumpMemoryLeaks 000000014003c36c     LIBCMTD:dbgheap.obj
 0004:00000378       $pdata$_CrtIsValidHeapPointer 000000014003c378     LIBCMTD:dbgheap.obj
 0004:00000384       $pdata$_CrtIsValidPointer  000000014003c384     LIBCMTD:dbgheap.obj
 0004:00000390       $pdata$_CrtMemCheckpoint   000000014003c390     LIBCMTD:dbgheap.obj
 0004:0000039c       $pdata$_CrtMemDumpAllObjectsSince 000000014003c39c     LIBCMTD:dbgheap.obj
 0004:000003a8       $pdata$_CrtSetCheckCount   000000014003c3a8     LIBCMTD:dbgheap.obj
 0004:000003b4       $pdata$_CrtSetDbgFlag      000000014003c3b4     LIBCMTD:dbgheap.obj
 0004:000003c0       $pdata$_calloc_dbg         000000014003c3c0     LIBCMTD:dbgheap.obj
 0004:000003cc       $pdata$_calloc_dbg_impl    000000014003c3cc     LIBCMTD:dbgheap.obj
 0004:000003d8       $pdata$_free_dbg           000000014003c3d8     LIBCMTD:dbgheap.obj
 0004:000003e4       $pdata$_free_dbg_nolock    000000014003c3e4     LIBCMTD:dbgheap.obj
 0004:000003f0       $pdata$_heap_alloc_dbg_impl 000000014003c3f0     LIBCMTD:dbgheap.obj
 0004:000003fc       $pdata$_malloc_dbg         000000014003c3fc     LIBCMTD:dbgheap.obj
 0004:00000408       $pdata$_msize_dbg          000000014003c408     LIBCMTD:dbgheap.obj
 0004:00000414       $pdata$_nh_malloc_dbg      000000014003c414     LIBCMTD:dbgheap.obj
 0004:00000420       $pdata$_nh_malloc_dbg_impl 000000014003c420     LIBCMTD:dbgheap.obj
 0004:0000042c       $pdata$_printMemBlockData  000000014003c42c     LIBCMTD:dbgheap.obj
 0004:00000438       $pdata$_realloc_dbg        000000014003c438     LIBCMTD:dbgheap.obj
 0004:00000444       $pdata$realloc_help        000000014003c444     LIBCMTD:dbgheap.obj
 0004:00000450       $pdata$__raise_securityfailure 000000014003c450     LIBCMTD:gs_report.obj
 0004:0000045c       $pdata$__report_gsfailure  000000014003c45c     LIBCMTD:gs_report.obj
 0004:00000468       $pdata$__report_rangecheckfailure 000000014003c468     LIBCMTD:gs_report.obj
 0004:00000474       $pdata$__report_securityfailure 000000014003c474     LIBCMTD:gs_report.obj
 0004:00000480       $pdata$_call_matherr       000000014003c480     LIBCMTD:libm_error.obj
 0004:0000048c       $pdata$_exception_enabled  000000014003c48c     LIBCMTD:libm_error.obj
 0004:00000498       $pdata$_handle_errorf      000000014003c498     LIBCMTD:libm_error.obj
 0004:000004a4       $pdata$?strrchr@@YAPEADPEADH@Z 000000014003c4a4     LIBCMTD:cvt.obj
 0004:000004b0       $pdata$_cfltcvt            000000014003c4b0     LIBCMTD:cvt.obj
 0004:000004bc       $pdata$_cfltcvt_l          000000014003c4bc     LIBCMTD:cvt.obj
 0004:000004c8       $pdata$_cftoa_l            000000014003c4c8     LIBCMTD:cvt.obj
 0004:000004d4       $pdata$_cftoe              000000014003c4d4     LIBCMTD:cvt.obj
 0004:000004e0       $pdata$_cftoe2_l           000000014003c4e0     LIBCMTD:cvt.obj
 0004:000004ec       $pdata$_cftoe_l            000000014003c4ec     LIBCMTD:cvt.obj
 0004:000004f8       $pdata$_cftof2_l           000000014003c4f8     LIBCMTD:cvt.obj
 0004:00000504       $pdata$_cftof_l            000000014003c504     LIBCMTD:cvt.obj
 0004:00000510       $pdata$_cftog_l            000000014003c510     LIBCMTD:cvt.obj
 0004:0000051c       $pdata$_cropzeros          000000014003c51c     LIBCMTD:cvt.obj
 0004:00000528       $pdata$_cropzeros_l        000000014003c528     LIBCMTD:cvt.obj
 0004:00000534       $pdata$_fassign            000000014003c534     LIBCMTD:cvt.obj
 0004:00000540       $pdata$_fassign_l          000000014003c540     LIBCMTD:cvt.obj
 0004:0000054c       $pdata$_forcdecpt          000000014003c54c     LIBCMTD:cvt.obj
 0004:00000558       $pdata$_forcdecpt_l        000000014003c558     LIBCMTD:cvt.obj
 0004:00000564       $pdata$_positive           000000014003c564     LIBCMTD:cvt.obj
 0004:00000570       $pdata$_shift              000000014003c570     LIBCMTD:cvt.obj
 0004:0000057c       $pdata$_initp_misc_cfltcvt_tab 000000014003c57c     LIBCMTD:cmiscdat.obj
 0004:00000588       $pdata$?__CxxUnhandledExceptionFilter@@YAJPEAU_EXCEPTION_POINTERS@@@Z 000000014003c588     LIBCMTD:unhandld.obj
 0004:00000594       $pdata$__CxxSetUnhandledExceptionFilter 000000014003c594     LIBCMTD:unhandld.obj
 0004:000005a0       $pdata$_XcptFilter         000000014003c5a0     LIBCMTD:winxfltr.obj
 0004:000005ac       $pdata$xcptlookup          000000014003c5ac     LIBCMTD:winxfltr.obj
 0004:000005b8       $pdata$_freefls            000000014003c5b8     LIBCMTD:tidtable.obj
 0004:000005c4       $pdata$_getptd             000000014003c5c4     LIBCMTD:tidtable.obj
 0004:000005d0       $pdata$_getptd_noexit      000000014003c5d0     LIBCMTD:tidtable.obj
 0004:000005dc       $pdata$_initptd            000000014003c5dc     LIBCMTD:tidtable.obj
 0004:000005e8       $pdata$_mtinit             000000014003c5e8     LIBCMTD:tidtable.obj
 0004:000005f4       $pdata$_mtterm             000000014003c5f4     LIBCMTD:tidtable.obj
 0004:00000600       $pdata$__crtCorExitProcess 000000014003c600     LIBCMTD:crt0dat.obj
 0004:0000060c       $pdata$__crtExitProcess    000000014003c60c     LIBCMTD:crt0dat.obj
 0004:00000618       $pdata$__freeCrtMemory     000000014003c618     LIBCMTD:crt0dat.obj
 0004:00000624       $pdata$_amsg_exit          000000014003c624     LIBCMTD:crt0dat.obj
 0004:00000630       $pdata$_c_exit             000000014003c630     LIBCMTD:crt0dat.obj
 0004:0000063c       $pdata$_cexit              000000014003c63c     LIBCMTD:crt0dat.obj
 0004:00000648       $pdata$_cinit              000000014003c648     LIBCMTD:crt0dat.obj
 0004:00000654       $pdata$_exit               000000014003c654     LIBCMTD:crt0dat.obj
 0004:00000660       $pdata$_init_pointers      000000014003c660     LIBCMTD:crt0dat.obj
 0004:0000066c       $pdata$_initterm           000000014003c66c     LIBCMTD:crt0dat.obj
 0004:00000678       $pdata$_initterm_e         000000014003c678     LIBCMTD:crt0dat.obj
 0004:00000684       $pdata$_lockexit           000000014003c684     LIBCMTD:crt0dat.obj
 0004:00000690       $pdata$_unlockexit         000000014003c690     LIBCMTD:crt0dat.obj
 0004:0000069c       $pdata$doexit              000000014003c69c     LIBCMTD:crt0dat.obj
 0004:000006a8       $pdata$exit                000000014003c6a8     LIBCMTD:crt0dat.obj
 0004:000006b4       $pdata$_heap_init          000000014003c6b4     LIBCMTD:heapinit.obj
 0004:000006c0       $pdata$_ioinit             000000014003c6c0     LIBCMTD:ioinit.obj
 0004:000006cc       $pdata$_setargv            000000014003c6cc     LIBCMTD:stdargv.obj
 0004:000006d8       $pdata$parse_cmdline       000000014003c6d8     LIBCMTD:stdargv.obj
 0004:000006e4       $pdata$_setenvp            000000014003c6e4     LIBCMTD:stdenvp.obj
 0004:000006f0       $pdata$_FF_MSGBANNER       000000014003c6f0     LIBCMTD:crt0msg.obj
 0004:000006fc       $pdata$_GET_RTERRMSG       000000014003c6fc     LIBCMTD:crt0msg.obj
 0004:00000708       $pdata$_NMSG_WRITE         000000014003c708     LIBCMTD:crt0msg.obj
 0004:00000714       $pdata$_set_error_mode     000000014003c714     LIBCMTD:errmode.obj
 0004:00000720       $pdata$__security_init_cookie 000000014003c720     LIBCMTD:gs_support.obj
 0004:0000072c       $pdata$_RTC_Initialize     000000014003c72c     LIBCMTD:initsect.obj
 0004:00000738       $pdata$_RTC_Terminate      000000014003c738     LIBCMTD:initsect.obj
 0004:00000744       $pdata$__crtGetEnvironmentStringsA 000000014003c744     LIBCMTD:a_env.obj
 0004:00000750       $pdata$__IsPackagedAppHelper 000000014003c750     LIBCMTD:winapisupp.obj
 0004:0000075c       $pdata$__crtCaptureCurrentContext 000000014003c75c     LIBCMTD:winapisupp.obj
 0004:00000768       $pdata$__crtCapturePreviousContext 000000014003c768     LIBCMTD:winapisupp.obj
 0004:00000774       $pdata$__crtFlsAlloc       000000014003c774     LIBCMTD:winapisupp.obj
 0004:00000780       $pdata$__crtFlsFree        000000014003c780     LIBCMTD:winapisupp.obj
 0004:0000078c       $pdata$__crtFlsGetValue    000000014003c78c     LIBCMTD:winapisupp.obj
 0004:00000798       $pdata$__crtFlsSetValue    000000014003c798     LIBCMTD:winapisupp.obj
 0004:000007a4       $pdata$__crtGetShowWindowMode 000000014003c7a4     LIBCMTD:winapisupp.obj
 0004:000007b0       $pdata$__crtInitializeCriticalSectionEx 000000014003c7b0     LIBCMTD:winapisupp.obj
 0004:000007bc       $pdata$__crtIsPackagedApp  000000014003c7bc     LIBCMTD:winapisupp.obj
 0004:000007c8       $pdata$__crtLoadWinApiPointers 000000014003c7c8     LIBCMTD:winapisupp.obj
 0004:000007d4       $pdata$__crtSetUnhandledExceptionFilter 000000014003c7d4     LIBCMTD:winapisupp.obj
 0004:000007e0       $pdata$__crtTerminateProcess 000000014003c7e0     LIBCMTD:winapisupp.obj
 0004:000007ec       $pdata$__crtUnhandledException 000000014003c7ec     LIBCMTD:winapisupp.obj
 0004:000007f8       $pdata$_wincmdln           000000014003c7f8     LIBCMTD:wincmdln.obj
 0004:00000804       $pdata$__C_specific_handler 000000014003c804     LIBCMTD:chandler.obj
 0004:00000810       $pdata$__initstdio         000000014003c810     LIBCMTD:_file.obj
 0004:0000081c       $pdata$__endstdio          000000014003c81c     LIBCMTD:_file.obj
 0004:00000828       $pdata$_lock_file          000000014003c828     LIBCMTD:_file.obj
 0004:00000834       $pdata$_lock_file2         000000014003c834     LIBCMTD:_file.obj
 0004:00000840       $pdata$_unlock_file        000000014003c840     LIBCMTD:_file.obj
 0004:0000084c       $pdata$_unlock_file2       000000014003c84c     LIBCMTD:_file.obj
 0004:00000858       $pdata$_fileno             000000014003c858     LIBCMTD:fileno.obj
 0004:00000864       $pdata$_isatty             000000014003c864     LIBCMTD:isatty.obj
 0004:00000870       $pdata$_write              000000014003c870     LIBCMTD:write.obj
 0004:0000087c       $pdata$_write_nolock       000000014003c87c     LIBCMTD:write.obj
 0004:00000888       $pdata$_lseeki64           000000014003c888     LIBCMTD:lseeki64.obj
 0004:00000894       $pdata$_lseeki64_nolock    000000014003c894     LIBCMTD:lseeki64.obj
 0004:000008a0       $pdata$_getbuf             000000014003c8a0     LIBCMTD:_getbuf.obj
 0004:000008ac       $pdata$memcpy_s            000000014003c8ac     LIBCMTD:memcpy_s.obj
 0004:000008b8       $pdata$wcscpy_s            000000014003c8b8     LIBCMTD:wcscpy_s.obj
 0004:000008c4       $pdata$wcslen              000000014003c8c4     LIBCMTD:wcslen.obj
 0004:000008d0       $pdata$_lock               000000014003c8d0     LIBCMTD:mlock.obj
 0004:000008dc       $pdata$_mtdeletelocks      000000014003c8dc     LIBCMTD:mlock.obj
 0004:000008e8       $pdata$_mtinitlocknum      000000014003c8e8     LIBCMTD:mlock.obj
 0004:000008f4       $pdata$_mtinitlocks        000000014003c8f4     LIBCMTD:mlock.obj
 0004:00000900       $pdata$_unlock             000000014003c900     LIBCMTD:mlock.obj
 0004:0000090c       $pdata$_snwprintf_s        000000014003c90c     LIBCMTD:swprintf.obj
 0004:00000918       $pdata$__get_sigabrt       000000014003c918     LIBCMTD:winsig.obj
 0004:00000924       $pdata$raise               000000014003c924     LIBCMTD:winsig.obj
 0004:00000930       $pdata$siglookup           000000014003c930     LIBCMTD:winsig.obj
 0004:0000093c       $pdata$__crtMessageBoxW    000000014003c93c     LIBCMTD:crtmboxw.obj
 0004:00000948       $pdata$__crtMessageBoxWaitThreadW 000000014003c948     LIBCMTD:crtmboxw.obj
 0004:00000954       $pdata$_VCrtDbgReportA     000000014003c954     LIBCMTD:dbgrptt.obj
 0004:00000960       $pdata$_VCrtDbgReportW     000000014003c960     LIBCMTD:dbgrptt.obj
 0004:00000978       $pdata$__isa_available_init 000000014003c978     LIBCMTD:cpu_disp.obj
 0004:00000984       $pdata$__addlocaleref      000000014003c984     LIBCMTD:localref.obj
 0004:00000990       $pdata$__freetlocinfo      000000014003c990     LIBCMTD:localref.obj
 0004:0000099c       $pdata$__removelocaleref   000000014003c99c     LIBCMTD:localref.obj
 0004:000009a8       $pdata$__updatetlocinfo    000000014003c9a8     LIBCMTD:localref.obj
 0004:000009b4       $pdata$_updatetlocinfoEx_nolock 000000014003c9b4     LIBCMTD:localref.obj
 0004:000009c0       $pdata$__initmbctable      000000014003c9c0     LIBCMTD:mbctype.obj
 0004:000009cc       $pdata$?CPtoLocaleName@@YAPEB_WH@Z 000000014003c9cc     LIBCMTD:mbctype.obj
 0004:000009d8       $pdata$?getSystemCP@@YAHH@Z 000000014003c9d8     LIBCMTD:mbctype.obj
 0004:000009e4       $pdata$?setSBCS@@YAXPEAUthreadmbcinfostruct@@@Z 000000014003c9e4     LIBCMTD:mbctype.obj
 0004:000009f0       $pdata$?setSBUpLow@@YAXPEAUthreadmbcinfostruct@@@Z 000000014003c9f0     LIBCMTD:mbctype.obj
 0004:000009fc       $pdata$__updatetmbcinfo    000000014003c9fc     LIBCMTD:mbctype.obj
 0004:00000a08       $pdata$_setmbcp            000000014003ca08     LIBCMTD:mbctype.obj
 0004:00000a14       $pdata$_setmbcp_nolock     000000014003ca14     LIBCMTD:mbctype.obj
 0004:00000a20       $pdata$_isleadbyte_l       000000014003ca20     LIBCMTD:_wctype.obj
 0004:00000a2c       $pdata$isleadbyte          000000014003ca2c     LIBCMTD:_wctype.obj
 0004:00000a44       $pdata$_get_printf_count_output 000000014003ca44     LIBCMTD:printf.obj
 0004:00000a50       $pdata$_wctomb_s_l         000000014003ca50     LIBCMTD:wctomb.obj
 0004:00000a5c       $pdata$wctomb_s            000000014003ca5c     LIBCMTD:wctomb.obj
 0004:00000a68       $pdata$_chvalidator        000000014003ca68     LIBCMTD:isctype.obj
 0004:00000a74       $pdata$_chvalidator_l      000000014003ca74     LIBCMTD:isctype.obj
 0004:00000a80       $pdata$_isctype_l          000000014003ca80     LIBCMTD:isctype.obj
 0004:00000a98       $pdata$_free_base          000000014003ca98     LIBCMTD:free.obj
 0004:00000aa4       $pdata$_realloc_base       000000014003caa4     LIBCMTD:realloc.obj
 0004:00000ab0       $pdata$_expand_base        000000014003cab0     LIBCMTD:expand.obj
 0004:00000abc       $pdata$_is_LFH_enabled     000000014003cabc     LIBCMTD:expand.obj
 0004:00000ac8       $pdata$_CrtDbgReport       000000014003cac8     LIBCMTD:dbgrpt.obj
 0004:00000ad4       $pdata$_CrtDbgReportV      000000014003cad4     LIBCMTD:dbgrpt.obj
 0004:00000ae0       $pdata$__crtMessageWindowA 000000014003cae0     LIBCMTD:dbgrpt.obj
 0004:00000aec       $pdata$_callnewh           000000014003caec     LIBCMTD:handler.obj
 0004:00000af8       $pdata$_heapchk            000000014003caf8     LIBCMTD:heapchk.obj
 0004:00000b04       $pdata$_snprintf_s         000000014003cb04     LIBCMTD:sprintf.obj
 0004:00000b10       $pdata$sprintf_s           000000014003cb10     LIBCMTD:sprintf.obj
 0004:00000b1c       $pdata$_heap_alloc_base    000000014003cb1c     LIBCMTD:malloc.obj
 0004:00000b28       $pdata$_malloc_base        000000014003cb28     LIBCMTD:malloc.obj
 0004:00000b34       $pdata$_raise_exc_ex       000000014003cb34     LIBCMTD:fpexcept.obj
 0004:00000b40       $pdata$_raise_excf         000000014003cb40     LIBCMTD:fpexcept.obj
 0004:00000b4c       $pdata$_set_errno_from_matherr 000000014003cb4c     LIBCMTD:fpexcept.obj
 0004:00000b58       $pdata$_clrfp              000000014003cb58     LIBCMTD:fpctrl.obj
 0004:00000b64       $pdata$_ctrlfp             000000014003cb64     LIBCMTD:fpctrl.obj
 0004:00000b70       $pdata$_set_statfp         000000014003cb70     LIBCMTD:fpctrl.obj
 0004:00000b7c       $pdata$_statfp             000000014003cb7c     LIBCMTD:fpctrl.obj
 0004:00000b88       $pdata$_isdigit_l          000000014003cb88     LIBCMTD:_ctype.obj
 0004:00000b94       $pdata$isdigit             000000014003cb94     LIBCMTD:_ctype.obj
 0004:00000ba0       $pdata$_tolower_l          000000014003cba0     LIBCMTD:tolower.obj
 0004:00000bac       $pdata$tolower             000000014003cbac     LIBCMTD:tolower.obj
 0004:00000bb8       $pdata$strcpy_s            000000014003cbb8     LIBCMTD:strcpy_s.obj
 0004:00000bc4       $pdata$strrchr             000000014003cbc4     LIBCMTD:strrchr.obj
 0004:00000bd0       $pdata$_fptostr            000000014003cbd0     LIBCMTD:_fptostr.obj
 0004:00000bdc       $pdata$__crt_atoflt_l      000000014003cbdc     LIBCMTD:atodbl.obj
 0004:00000be8       $pdata$_atodbl_l           000000014003cbe8     LIBCMTD:atodbl.obj
 0004:00000bf4       $pdata$_atoflt_l           000000014003cbf4     LIBCMTD:atodbl.obj
 0004:00000c00       $pdata$__dtold             000000014003cc00     LIBCMTD:cfout.obj
 0004:00000c0c       $pdata$_fltout2            000000014003cc0c     LIBCMTD:cfout.obj
 0004:00000c18       $pdata$_fptrap             000000014003cc18     LIBCMTD:crt0fp.obj
 0004:00000c24       $pdata$?_inconsistency@@YAXXZ 000000014003cc24     LIBCMTD:hooks.obj
 0004:00000c30       $pdata$?terminate@@YAXXZ   000000014003cc30     LIBCMTD:hooks.obj
 0004:00000c3c       $pdata$_initp_eh_hooks     000000014003cc3c     LIBCMTD:hooks.obj
 0004:00000c48       $pdata$_FindPESection      000000014003cc48     LIBCMTD:pesect.obj
 0004:00000c54       $pdata$_IsNonwritableInCurrentImage 000000014003cc54     LIBCMTD:pesect.obj
 0004:00000c60       $pdata$_ValidateImageBase  000000014003cc60     LIBCMTD:pesect.obj
 0004:00000c6c       $pdata$__onexitinit        000000014003cc6c     LIBCMTD:onexit.obj
 0004:00000c78       $pdata$_onexit             000000014003cc78     LIBCMTD:onexit.obj
 0004:00000c84       $pdata$_onexit_nolock      000000014003cc84     LIBCMTD:onexit.obj
 0004:00000c90       $pdata$atexit              000000014003cc90     LIBCMTD:onexit.obj
 0004:00000ccc       $pdata$?x_ismbbtype_l@@YAHPEAUlocaleinfo_struct@@IHH@Z 000000014003cccc     LIBCMTD:ismbbyte.obj
 0004:00000cd8       $pdata$_ismbblead          000000014003ccd8     LIBCMTD:ismbbyte.obj
 0004:00000ce4       $pdata$wcscat_s            000000014003cce4     LIBCMTD:wcscat_s.obj
 0004:00000cf0       $pdata$wcsncpy_s           000000014003ccf0     LIBCMTD:wcsncpy_s.obj
 0004:00000cfc       $pdata$_fcloseall          000000014003ccfc     LIBCMTD:closeall.obj
 0004:00000d08       $pdata$_fflush_nolock      000000014003cd08     LIBCMTD:fflush.obj
 0004:00000d14       $pdata$_flush              000000014003cd14     LIBCMTD:fflush.obj
 0004:00000d20       $pdata$_flushall           000000014003cd20     LIBCMTD:fflush.obj
 0004:00000d2c       $pdata$flsall              000000014003cd2c     LIBCMTD:fflush.obj
 0004:00000d38       $pdata$__lock_fhandle      000000014003cd38     LIBCMTD:osfinfo.obj
 0004:00000d44       $pdata$_free_osfhnd        000000014003cd44     LIBCMTD:osfinfo.obj
 0004:00000d50       $pdata$_get_osfhandle      000000014003cd50     LIBCMTD:osfinfo.obj
 0004:00000d5c       $pdata$_unlock_fhandle     000000014003cd5c     LIBCMTD:osfinfo.obj
 0004:00000d68       $pdata$_mbtowc_l           000000014003cd68     LIBCMTD:mbtowc.obj
 0004:00000d74       $pdata$mbtowc              000000014003cd74     LIBCMTD:mbtowc.obj
 0004:00000d80       $pdata$_putwch_nolock      000000014003cd80     LIBCMTD:putwch.obj
 0004:00000d8c       $pdata$_vsnwprintf_s       000000014003cd8c     LIBCMTD:vswprnc.obj
 0004:00000d98       $pdata$_vsnwprintf_s_l     000000014003cd98     LIBCMTD:vswprnc.obj
 0004:00000da4       $pdata$_vswprintf_helper   000000014003cda4     LIBCMTD:vswprnc.obj
 0004:00000db0       $pdata$strcat_s            000000014003cdb0     LIBCMTD:strcat_s.obj
 0004:00000dbc       $pdata$_itoa_s             000000014003cdbc     LIBCMTD:xtoas.obj
 0004:00000dc8       $pdata$xtoa_s              000000014003cdc8     LIBCMTD:xtoas.obj
 0004:00000dd4       $pdata$_mbstowcs_l_helper  000000014003cdd4     LIBCMTD:mbstowcs.obj
 0004:00000de0       $pdata$_mbstowcs_s_l       000000014003cde0     LIBCMTD:mbstowcs.obj
 0004:00000dec       $pdata$mbstowcs_s          000000014003cdec     LIBCMTD:mbstowcs.obj
 0004:00000df8       $pdata$?wcsncnt@@YA_KPEB_W_K@Z 000000014003cdf8     LIBCMTD:wcstombs.obj
 0004:00000e04       $pdata$_wcstombs_l_helper  000000014003ce04     LIBCMTD:wcstombs.obj
 0004:00000e10       $pdata$_wcstombs_s_l       000000014003ce10     LIBCMTD:wcstombs.obj
 0004:00000e1c       $pdata$wcstombs_s          000000014003ce1c     LIBCMTD:wcstombs.obj
 0004:00000e28       $pdata$_itow_s             000000014003ce28     LIBCMTD:xtows.obj
 0004:00000e34       $pdata$xtow_s              000000014003ce34     LIBCMTD:xtows.obj
 0004:00000e40       $pdata$__GSHandlerCheck_SEH 000000014003ce40     LIBCMTD:gshandlerseh.obj
 0004:00000e4c       $pdata$__free_lconv_mon    000000014003ce4c     LIBCMTD:initmon.obj
 0004:00000e58       $pdata$__free_lconv_num    000000014003ce58     LIBCMTD:initnum.obj
 0004:00000e64       $pdata$__free_lc_time      000000014003ce64     LIBCMTD:inittime.obj
 0004:00000e70       $pdata$?__crtLCMapStringA_stat@@YAHPEAUlocaleinfo_struct@@PEB_WKPEBDHPEADHHH@Z 000000014003ce70     LIBCMTD:a_map.obj
 0004:00000e7c       $pdata$?strncnt@@YAHPEBDH@Z 000000014003ce7c     LIBCMTD:a_map.obj
 0004:00000e88       $pdata$_MallocaIsSizeInRange 000000014003ce88     LIBCMTD:a_map.obj
 0004:00000e94       $pdata$__crtLCMapStringA   000000014003ce94     LIBCMTD:a_map.obj
 0004:00000ea0       $pdata$_freea              000000014003cea0     LIBCMTD:a_map.obj
 0004:00000eac       $pdata$?__crtGetStringTypeA_stat@@YAHPEAUlocaleinfo_struct@@KPEBDHPEAGHH@Z 000000014003ceac     LIBCMTD:a_str.obj
 0004:00000eb8       $pdata$__crtGetStringTypeA 000000014003ceb8     LIBCMTD:a_str.obj
 0004:00000ec4       $pdata$?_CatchTryBlock@@YAPEBU_s_TryBlockMapEntry@@PEBU_s_FuncInfo@@H@Z 000000014003cec4     LIBCMTD:trnsctrl.obj
 0004:00000ed0       $pdata$?_GetEstablisherFrame@@YAPEA_KPEA_KPEAU_xDISPATCHER_CONTEXT@@PEBU_s_FuncInfo@@0@Z 000000014003ced0     LIBCMTD:trnsctrl.obj
 0004:00000edc       $pdata$?_GetRangeOfTrysToCheck@@YAPEBU_s_TryBlockMapEntry@@PEA_KPEBU_s_FuncInfo@@HHPEAI2PEAU_xDISPATCHER_CONTEXT@@@Z 000000014003cedc     LIBCMTD:trnsctrl.obj
 0004:00000ee8       $pdata$?__FrameUnwindToEmptyState@@YAXPEA_KPEAU_xDISPATCHER_CONTEXT@@PEBU_s_FuncInfo@@@Z 000000014003cee8     LIBCMTD:trnsctrl.obj
 0004:00000ef4       $pdata$?__SehTransFilter@@YAHPEAU_EXCEPTION_POINTERS@@PEAUEHExceptionRecord@@PEA_KPEAU_CONTEXT@@PEAU_xDISPATCHER_CONTEXT@@PEBU_s_FuncInfo@@PEAH@Z 000000014003cef4     LIBCMTD:trnsctrl.obj
 0004:00000f00       $pdata$_CallSETranslator   000000014003cf00     LIBCMTD:trnsctrl.obj
 0004:00000f0c       $pdata$_CreateFrameInfo    000000014003cf0c     LIBCMTD:trnsctrl.obj
 0004:00000f18       $pdata$_FindAndUnlinkFrame 000000014003cf18     LIBCMTD:trnsctrl.obj
 0004:00000f24       $pdata$_GetImageBase       000000014003cf24     LIBCMTD:trnsctrl.obj
 0004:00000f30       $pdata$_GetThrowImageBase  000000014003cf30     LIBCMTD:trnsctrl.obj
 0004:00000f3c       $pdata$_IsExceptionObjectToBeDestroyed 000000014003cf3c     LIBCMTD:trnsctrl.obj
 0004:00000f48       $pdata$_SetImageBase       000000014003cf48     LIBCMTD:trnsctrl.obj
 0004:00000f54       $pdata$_SetThrowImageBase  000000014003cf54     LIBCMTD:trnsctrl.obj
 0004:00000f60       $pdata$_UnwindNestedFrames 000000014003cf60     LIBCMTD:trnsctrl.obj
 0004:00000f6c       $pdata$__CxxFrameHandler3  000000014003cf6c     LIBCMTD:trnsctrl.obj
 0004:00000f78       $pdata$_locterm            000000014003cf78     LIBCMTD:wsetloca.obj
 0004:00000f90       $pdata$_CopyMan            000000014003cf90     LIBCMTD:intrncvt.obj
 0004:00000f9c       $pdata$_FillZeroMan        000000014003cf9c     LIBCMTD:intrncvt.obj
 0004:00000fa8       $pdata$_IncMan             000000014003cfa8     LIBCMTD:intrncvt.obj
 0004:00000fb4       $pdata$_IsZeroMan          000000014003cfb4     LIBCMTD:intrncvt.obj
 0004:00000fc0       $pdata$_RoundMan           000000014003cfc0     LIBCMTD:intrncvt.obj
 0004:00000fcc       $pdata$_ShrMan             000000014003cfcc     LIBCMTD:intrncvt.obj
 0004:00000fd8       $pdata$_ZeroTail           000000014003cfd8     LIBCMTD:intrncvt.obj
 0004:00000fe4       $pdata$__addl              000000014003cfe4     LIBCMTD:intrncvt.obj
 0004:00000ff0       $pdata$_ld12cvt            000000014003cff0     LIBCMTD:intrncvt.obj
 0004:00000ffc       $pdata$_ld12tod            000000014003cffc     LIBCMTD:intrncvt.obj
 0004:00001008       $pdata$_ld12tof            000000014003d008     LIBCMTD:intrncvt.obj
 0004:00001014       $pdata$__ld12mul           000000014003d014     LIBCMTD:strgtold.obj
 0004:00001020       $pdata$__multtenpow12      000000014003d020     LIBCMTD:strgtold.obj
 0004:0000102c       $pdata$__shl_12            000000014003d02c     LIBCMTD:strgtold.obj
 0004:00001038       $pdata$__shr_12            000000014003d038     LIBCMTD:strgtold.obj
 0004:00001044       $pdata$__strgtold12_l      000000014003d044     LIBCMTD:strgtold.obj
 0004:00001050       $pdata$$I10_OUTPUT         000000014003d050     LIBCMTD:x10fout.obj
 0004:0000105c       $pdata$__add_12            000000014003d05c     LIBCMTD:x10fout.obj
 0004:00001068       $pdata$abort               000000014003d068     LIBCMTD:abort.obj
 0004:00001074       $pdata$GetTableIndexFromLocaleName 000000014003d074     LIBCMTD:winapinls.obj
 0004:00001080       $pdata$__crtDownlevelLocaleNameToLCID 000000014003d080     LIBCMTD:winapinls.obj
 0004:0000108c       $pdata$__crtLCMapStringEx  000000014003d08c     LIBCMTD:winapinls.obj
 0004:00001098       $pdata$__wcsnicmp_ascii    000000014003d098     LIBCMTD:winapinls.obj
 0004:000010a4       $pdata$_fclose_nolock      000000014003d0a4     LIBCMTD:fclose.obj
 0004:000010b0       $pdata$fclose              000000014003d0b0     LIBCMTD:fclose.obj
 0004:000010bc       $pdata$_commit             000000014003d0bc     LIBCMTD:commit.obj
 0004:000010c8       $pdata$__termconout        000000014003d0c8     LIBCMTD:initcon.obj
 0004:000010d4       $pdata$__initconout        000000014003d0d4     LIBCMTD:initcon.obj
 0004:000010e0       $pdata$_woutput_s_l        000000014003d0e0     LIBCMTD:woutputs.obj
 0004:000010ec       $pdata$write_char          000000014003d0ec     LIBCMTD:woutputs.obj
 0004:000010f8       $pdata$write_multi_char    000000014003d0f8     LIBCMTD:woutputs.obj
 0004:00001104       $pdata$write_string        000000014003d104     LIBCMTD:woutputs.obj
 0004:00001110       $pdata$_fputwc_nolock      000000014003d110     LIBCMTD:fputwc.obj
 0004:0000111c       $pdata$free                000000014003d11c     LIBCMTD:dbgfree.obj
 0004:00001128       $pdata$malloc              000000014003d128     LIBCMTD:dbgmalloc.obj
 0004:00001134       $pdata$__DestructExceptionObject 000000014003d134     LIBCMTD:frame.obj
 0004:00001140       $pdata$??0bad_exception@std@@QEAA@AEBV01@@Z 000000014003d140     LIBCMTD:frame.obj
 0004:0000114c       $pdata$??0bad_exception@std@@QEAA@PEBD@Z 000000014003d14c     LIBCMTD:frame.obj
 0004:00001158       $pdata$??1bad_exception@std@@UEAA@XZ 000000014003d158     LIBCMTD:frame.obj
 0004:00001164       $pdata$??_Gbad_exception@std@@UEAAPEAXI@Z 000000014003d164     LIBCMTD:frame.obj
 0004:00001170       $pdata$?CatchIt@@YAXPEAUEHExceptionRecord@@PEA_KPEAU_CONTEXT@@PEAU_xDISPATCHER_CONTEXT@@PEBU_s_FuncInfo@@PEBU_s_HandlerType@@PEBU_s_CatchableType@@PEBU_s_TryBlockMapEntry@@H1EE@Z 000000014003d170     LIBCMTD:frame.obj
 0004:0000117c       $pdata$?ExFilterRethrow@@YAHPEAU_EXCEPTION_POINTERS@@PEAUEHExceptionRecord@@PEAH@Z 000000014003d17c     LIBCMTD:frame.obj
 0004:00001188       $pdata$?FindHandler@@YAXPEAUEHExceptionRecord@@PEA_KPEAU_CONTEXT@@PEAU_xDISPATCHER_CONTEXT@@PEBU_s_FuncInfo@@EH1@Z 000000014003d188     LIBCMTD:frame.obj
 0004:00001194       $pdata$?FindHandlerForForeignException@@YAXPEAUEHExceptionRecord@@PEA_KPEAU_CONTEXT@@PEAU_xDISPATCHER_CONTEXT@@PEBU_s_FuncInfo@@HH1@Z 000000014003d194     LIBCMTD:frame.obj
 0004:000011a0       $pdata$?IsInExceptionSpec@@YAEPEAUEHExceptionRecord@@PEBU_s_ESTypeList@@@Z 000000014003d1a0     LIBCMTD:frame.obj
 0004:000011ac       $pdata$?Is_bad_exception_allowed@@YAEPEBU_s_ESTypeList@@@Z 000000014003d1ac     LIBCMTD:frame.obj
 0004:000011b8       $pdata$?__RethrowException@@YAXPEAUEHExceptionRecord@@@Z 000000014003d1b8     LIBCMTD:frame.obj
 0004:000011c4       $pdata$__AdjustPointer     000000014003d1c4     LIBCMTD:frame.obj
 0004:000011d0       $pdata$__BuildCatchObject  000000014003d1d0     LIBCMTD:frame.obj
 0004:000011dc       $pdata$__BuildCatchObjectHelper 000000014003d1dc     LIBCMTD:frame.obj
 0004:000011e8       $pdata$__CxxCallCatchBlock 000000014003d1e8     LIBCMTD:frame.obj
 0004:000011f4       $pdata$__FrameUnwindFilter 000000014003d1f4     LIBCMTD:frame.obj
 0004:00001200       $pdata$__FrameUnwindToState 000000014003d200     LIBCMTD:frame.obj
 0004:0000120c       $pdata$__InternalCxxFrameHandler 000000014003d20c     LIBCMTD:frame.obj
 0004:00001218       $pdata$__TypeMatch         000000014003d218     LIBCMTD:frame.obj
 0004:00001224       $pdata$?__GetCurrentState@@YAHPEA_KPEAU_xDISPATCHER_CONTEXT@@PEBU_s_FuncInfo@@@Z 000000014003d224     LIBCMTD:ehstate.obj
 0004:00001230       $pdata$?__GetUnwindTryBlock@@YAHPEA_KPEAU_xDISPATCHER_CONTEXT@@PEBU_s_FuncInfo@@@Z 000000014003d230     LIBCMTD:ehstate.obj
 0004:0000123c       $pdata$?__SetUnwindTryBlock@@YAXPEA_KPEAU_xDISPATCHER_CONTEXT@@PEBU_s_FuncInfo@@H@Z 000000014003d23c     LIBCMTD:ehstate.obj
 0004:00001248       $pdata$?__StateFromControlPc@@YAHPEBU_s_FuncInfo@@PEAU_xDISPATCHER_CONTEXT@@@Z 000000014003d248     LIBCMTD:ehstate.obj
 0004:00001254       $pdata$?__StateFromIp@@YAHPEBU_s_FuncInfo@@PEAU_xDISPATCHER_CONTEXT@@_J@Z 000000014003d254     LIBCMTD:ehstate.obj
 0004:0000126c       $pdata$__mtold12           000000014003d26c     LIBCMTD:mantold.obj
 0004:00001278       $pdata$_close              000000014003d278     LIBCMTD:close.obj
 0004:00001284       $pdata$_close_nolock       000000014003d284     LIBCMTD:close.obj
 0004:00001290       $pdata$_freebuf            000000014003d290     LIBCMTD:_freebuf.obj
 0004:0000129c       $pdata$_flswbuf            000000014003d29c     LIBCMTD:_flswbuf.obj
 0004:000012a8       $pdata$??3@YAXPEAX@Z       000000014003d2a8     LIBCMTD:dbgdel.obj
 0004:000012c0       $pdata$?_ValidateExecute@@YAHP6A_JXZ@Z 000000014003d2c0     LIBCMTD:validate.obj
 0004:000012cc       $pdata$?_ValidateRead@@YAHPEBXI@Z 000000014003d2cc     LIBCMTD:validate.obj
 0004:000012cc       $pdata$?_ValidateWrite@@YAHPEAXI@Z 000000014003d2cc     LIBCMTD:validate.obj
 0004:000012e4       $pdata$??1type_info@@UEAA@XZ 000000014003d2e4     LIBCMTD:typinfo.obj
 0004:000012f0       $pdata$??8type_info@@QEBA_NAEBV0@@Z 000000014003d2f0     LIBCMTD:typinfo.obj
 0004:000012fc       $pdata$??_Gtype_info@@UEAAPEAXI@Z 000000014003d2fc     LIBCMTD:typinfo.obj
 0004:00001308       $pdata$??0exception@std@@QEAA@AEBQEBD@Z 000000014003d308     LIBCMTD:stdexcpt.obj
 0004:00001314       $pdata$??0exception@std@@QEAA@AEBV01@@Z 000000014003d314     LIBCMTD:stdexcpt.obj
 0004:00001320       $pdata$??1exception@std@@UEAA@XZ 000000014003d320     LIBCMTD:stdexcpt.obj
 0004:0000132c       $pdata$??4exception@std@@QEAAAEAV01@AEBV01@@Z 000000014003d32c     LIBCMTD:stdexcpt.obj
 0004:00001338       $pdata$??_Gexception@std@@UEAAPEAXI@Z 000000014003d338     LIBCMTD:stdexcpt.obj
 0004:00001344       $pdata$?_Copy_str@exception@std@@AEAAXPEBD@Z 000000014003d344     LIBCMTD:stdexcpt.obj
 0004:00001350       $pdata$?_Tidy@exception@std@@AEAAXXZ 000000014003d350     LIBCMTD:stdexcpt.obj
 0004:0000135c       $pdata$?what@exception@std@@UEBAPEBDXZ 000000014003d35c     LIBCMTD:stdexcpt.obj
 0004:00001368       $pdata$_CxxThrowException  000000014003d368     LIBCMTD:throw.obj
 0004:00001374       $pdata$?_Type_info_dtor@type_info@@CAXPEAV1@@Z 000000014003d374     LIBCMTD:typname.obj
 0004:00001380       $pdata$__tmainCRTStartup$filt$0 000000014003d380     LIBCMTD:wincrt0.obj
 0004:0000138c       $pdata$_CrtCheckMemory$fin$0 000000014003d38c     LIBCMTD:dbgheap.obj
 0004:00001398       $pdata$_free_dbg$fin$0     000000014003d398     LIBCMTD:dbgheap.obj
 0004:000013a4       $pdata$_heap_alloc_dbg_impl$fin$0 000000014003d3a4     LIBCMTD:dbgheap.obj
 0004:000013a4       $pdata$?fin$0@?0??_CrtMemDumpAllObjectsSince_stat@@YAXPEBU_CrtMemState@@PEAUlocaleinfo_struct@@@Z@4HA 000000014003d3a4     LIBCMTD:dbgheap.obj
 0004:000013a4       $pdata$_CrtMemCheckpoint$fin$0 000000014003d3a4     LIBCMTD:dbgheap.obj
 0004:000013b0       $pdata$_msize_dbg$fin$0    000000014003d3b0     LIBCMTD:dbgheap.obj
 0004:000013b0       $pdata$_CrtSetDbgFlag$fin$0 000000014003d3b0     LIBCMTD:dbgheap.obj
 0004:000013b0       $pdata$?fin$0@?0???3@YAXPEAX@Z@4HA 000000014003d3b0     LIBCMTD:dbgheap.obj
 0004:000013b0       $pdata$_realloc_dbg$fin$0  000000014003d3b0     LIBCMTD:dbgheap.obj
 0004:000013bc       $pdata$_initptd$fin$0      000000014003d3bc     LIBCMTD:tidtable.obj
 0004:000013bc       $pdata$_freefls$fin$0      000000014003d3bc     LIBCMTD:tidtable.obj
 0004:000013c8       $pdata$_initptd$fin$1      000000014003d3c8     LIBCMTD:tidtable.obj
 0004:000013c8       $pdata$_freefls$fin$1      000000014003d3c8     LIBCMTD:tidtable.obj
 0004:000013d4       $pdata$doexit$fin$0        000000014003d3d4     LIBCMTD:crt0dat.obj
 0004:000013e0       $pdata$_ioinit$fin$0       000000014003d3e0     LIBCMTD:ioinit.obj
 0004:000013ec       $pdata$raise$fin$0         000000014003d3ec     LIBCMTD:winsig.obj
 0004:000013f8       $pdata$_VCrtDbgReportA$fin$0 000000014003d3f8     LIBCMTD:dbgrptt.obj
 0004:00001404       $pdata$_VCrtDbgReportA$fin$1 000000014003d404     LIBCMTD:dbgrptt.obj
 0004:00001410       $pdata$_VCrtDbgReportW$fin$0 000000014003d410     LIBCMTD:dbgrptt.obj
 0004:0000141c       $pdata$_VCrtDbgReportW$fin$1 000000014003d41c     LIBCMTD:dbgrptt.obj
 0004:00001428       $pdata$_locterm$fin$0      000000014003d428     LIBCMTD:localref.obj
 0004:00001428       $pdata$__updatetlocinfo$fin$0 000000014003d428     LIBCMTD:localref.obj
 0004:00001434       $pdata$?dtor$0@?0??getSystemCP@@YAHH@Z@4HA 000000014003d434     LIBCMTD:mbctype.obj
 0004:00001440       $pdata$_setmbcp$fin$0      000000014003d440     LIBCMTD:mbctype.obj
 0004:00001440       $pdata$__updatetmbcinfo$fin$0 000000014003d440     LIBCMTD:mbctype.obj
 0004:0000144c       $pdata$_ctrlfp$filt$0      000000014003d44c     LIBCMTD:fpctrl.obj
 0004:00001458       $pdata$__BuildCatchObjectHelper$filt$0 000000014003d458     LIBCMTD:hooks.obj
 0004:00001458       $pdata$?filt$0@?0??_inconsistency@@YAXXZ@4HA 000000014003d458     LIBCMTD:hooks.obj
 0004:00001458       $pdata$__BuildCatchObject$filt$0 000000014003d458     LIBCMTD:hooks.obj
 0004:00001458       $pdata$?filt$0@?0??terminate@@YAXXZ@4HA 000000014003d458     LIBCMTD:hooks.obj
 0004:00001458       $pdata$?filt$0@?0??__crtIsBadReadPtr@@YAHPEBX_K@Z@4HA 000000014003d458     LIBCMTD:hooks.obj
 0004:00001464       $pdata$_IsNonwritableInCurrentImage$filt$0 000000014003d464     LIBCMTD:pesect.obj
 0004:00001470       $pdata$_onexit$fin$0       000000014003d470     LIBCMTD:onexit.obj
 0004:0000147c       $pdata$?dtor$0@?0??x_ismbbtype_l@@YAHPEAUlocaleinfo_struct@@IHH@Z@4HA 000000014003d47c     LIBCMTD:ismbbyte.obj
 0004:00001488       $pdata$_fcloseall$fin$0    000000014003d488     LIBCMTD:closeall.obj
 0004:00001494       $pdata$flsall$fin$0        000000014003d494     LIBCMTD:fflush.obj
 0004:000014a0       $pdata$flsall$fin$1        000000014003d4a0     LIBCMTD:fflush.obj
 0004:000014ac       $pdata$__lock_fhandle$fin$0 000000014003d4ac     LIBCMTD:osfinfo.obj
 0004:000014ac       $pdata$_mtinitlocknum$fin$0 000000014003d4ac     LIBCMTD:osfinfo.obj
 0004:000014b8       $pdata$_CallSETranslator$filt$0 000000014003d4b8     LIBCMTD:trnsctrl.obj
 0004:000014c4       $pdata$fclose$fin$0        000000014003d4c4     LIBCMTD:fclose.obj
 0004:000014d0       $pdata$__CxxCallCatchBlock$filt$0 000000014003d4d0     LIBCMTD:frame.obj
 0004:000014dc       $pdata$__CxxCallCatchBlock$fin$1 000000014003d4dc     LIBCMTD:frame.obj
 0004:000014e8       $pdata$__DestructExceptionObject$filt$0 000000014003d4e8     LIBCMTD:frame.obj
 0004:000014f4       $pdata$__FrameUnwindToState$filt$0 000000014003d4f4     LIBCMTD:frame.obj
 0004:00001500       $pdata$__FrameUnwindToState$fin$1 000000014003d500     LIBCMTD:frame.obj
 0004:0000150c       $pdata$_commit$fin$0       000000014003d50c     LIBCMTD:close.obj
 0004:0000150c       $pdata$_lseeki64$fin$0     000000014003d50c     LIBCMTD:close.obj
 0004:0000150c       $pdata$_write$fin$0        000000014003d50c     LIBCMTD:close.obj
 0004:0000150c       $pdata$_close$fin$0        000000014003d50c     LIBCMTD:close.obj
 0004:00001518       $pdata$?fin$0@?0??_Type_info_dtor@type_info@@CAXPEAV1@@Z@4HA 000000014003d518     LIBCMTD:typname.obj
